
obj/kern/kernel:     file format elf32-i386


Disassembly of section .text:

00100000 <video_init>:
#include "video.h"
//tmphack
//#include<dev/serial.h>
void
video_init(void)
{
  100000:	56                   	push   %esi
	unsigned pos;

	/* Get a pointer to the memory-mapped text display buffer. */
	cp = (uint16_t*) CGA_BUF;
	was = *cp;
	*cp = (uint16_t) 0xA55A;
  100001:	b8 5a a5 ff ff       	mov    $0xffffa55a,%eax
#include "video.h"
//tmphack
//#include<dev/serial.h>
void
video_init(void)
{
  100006:	53                   	push   %ebx
  100007:	83 ec 14             	sub    $0x14,%esp
	uint16_t was;
	unsigned pos;

	/* Get a pointer to the memory-mapped text display buffer. */
	cp = (uint16_t*) CGA_BUF;
	was = *cp;
  10000a:	0f b7 15 00 80 0b 00 	movzwl 0xb8000,%edx
	*cp = (uint16_t) 0xA55A;
  100011:	66 a3 00 80 0b 00    	mov    %ax,0xb8000
	if (*cp != 0xA55A) {
  100017:	0f b7 05 00 80 0b 00 	movzwl 0xb8000,%eax
  10001e:	66 3d 5a a5          	cmp    $0xa55a,%ax
  100022:	0f 84 98 00 00 00    	je     1000c0 <video_init+0xc0>
		cp = (uint16_t*) MONO_BUF;
		addr_6845 = MONO_BASE;
		dprintf("addr_6845:%x\n",addr_6845);
  100028:	c7 44 24 04 b4 03 00 	movl   $0x3b4,0x4(%esp)
  10002f:	00 
	/* Get a pointer to the memory-mapped text display buffer. */
	cp = (uint16_t*) CGA_BUF;
	was = *cp;
	*cp = (uint16_t) 0xA55A;
	if (*cp != 0xA55A) {
		cp = (uint16_t*) MONO_BUF;
  100030:	be 00 00 0b 00       	mov    $0xb0000,%esi
		addr_6845 = MONO_BASE;
		dprintf("addr_6845:%x\n",addr_6845);
  100035:	c7 04 24 60 ab 10 00 	movl   $0x10ab60,(%esp)
	cp = (uint16_t*) CGA_BUF;
	was = *cp;
	*cp = (uint16_t) 0xA55A;
	if (*cp != 0xA55A) {
		cp = (uint16_t*) MONO_BUF;
		addr_6845 = MONO_BASE;
  10003c:	c7 05 f0 03 98 00 b4 	movl   $0x3b4,0x9803f0
  100043:	03 00 00 
		dprintf("addr_6845:%x\n",addr_6845);
  100046:	e8 55 43 00 00       	call   1043a0 <dprintf>
		addr_6845 = CGA_BASE;
		dprintf("addr_6845:%x\n",addr_6845);
	}
	
	/* Extract cursor location */
	outb(addr_6845, 14);
  10004b:	a1 f0 03 98 00       	mov    0x9803f0,%eax
  100050:	c7 44 24 04 0e 00 00 	movl   $0xe,0x4(%esp)
  100057:	00 
  100058:	89 04 24             	mov    %eax,(%esp)
  10005b:	e8 00 50 00 00       	call   105060 <outb>
	pos = inb(addr_6845 + 1) << 8;
  100060:	a1 f0 03 98 00       	mov    0x9803f0,%eax
  100065:	83 c0 01             	add    $0x1,%eax
  100068:	89 04 24             	mov    %eax,(%esp)
  10006b:	e8 c0 4f 00 00       	call   105030 <inb>
	outb(addr_6845, 15);
  100070:	c7 44 24 04 0f 00 00 	movl   $0xf,0x4(%esp)
  100077:	00 
		dprintf("addr_6845:%x\n",addr_6845);
	}
	
	/* Extract cursor location */
	outb(addr_6845, 14);
	pos = inb(addr_6845 + 1) << 8;
  100078:	0f b6 d8             	movzbl %al,%ebx
	outb(addr_6845, 15);
  10007b:	a1 f0 03 98 00       	mov    0x9803f0,%eax
		dprintf("addr_6845:%x\n",addr_6845);
	}
	
	/* Extract cursor location */
	outb(addr_6845, 14);
	pos = inb(addr_6845 + 1) << 8;
  100080:	c1 e3 08             	shl    $0x8,%ebx
	outb(addr_6845, 15);
  100083:	89 04 24             	mov    %eax,(%esp)
  100086:	e8 d5 4f 00 00       	call   105060 <outb>
	pos |= inb(addr_6845 + 1);
  10008b:	a1 f0 03 98 00       	mov    0x9803f0,%eax
  100090:	83 c0 01             	add    $0x1,%eax
  100093:	89 04 24             	mov    %eax,(%esp)
  100096:	e8 95 4f 00 00       	call   105030 <inb>

	terminal.crt_buf = (uint16_t*) cp;
  10009b:	89 35 e4 03 98 00    	mov    %esi,0x9803e4
	terminal.crt_pos = pos;
	terminal.active_console = 0;
  1000a1:	c7 05 ec 03 98 00 00 	movl   $0x0,0x9803ec
  1000a8:	00 00 00 
	
	/* Extract cursor location */
	outb(addr_6845, 14);
	pos = inb(addr_6845 + 1) << 8;
	outb(addr_6845, 15);
	pos |= inb(addr_6845 + 1);
  1000ab:	0f b6 c0             	movzbl %al,%eax
  1000ae:	09 d8                	or     %ebx,%eax

	terminal.crt_buf = (uint16_t*) cp;
	terminal.crt_pos = pos;
  1000b0:	66 a3 e8 03 98 00    	mov    %ax,0x9803e8
	terminal.active_console = 0;
//  video_clear_screen();
}
  1000b6:	83 c4 14             	add    $0x14,%esp
  1000b9:	5b                   	pop    %ebx
  1000ba:	5e                   	pop    %esi
  1000bb:	c3                   	ret    
  1000bc:	8d 74 26 00          	lea    0x0(%esi,%eiz,1),%esi
	if (*cp != 0xA55A) {
		cp = (uint16_t*) MONO_BUF;
		addr_6845 = MONO_BASE;
		dprintf("addr_6845:%x\n",addr_6845);
	} else {
		*cp = was;
  1000c0:	66 89 15 00 80 0b 00 	mov    %dx,0xb8000
	volatile uint16_t *cp;
	uint16_t was;
	unsigned pos;

	/* Get a pointer to the memory-mapped text display buffer. */
	cp = (uint16_t*) CGA_BUF;
  1000c7:	be 00 80 0b 00       	mov    $0xb8000,%esi
		addr_6845 = MONO_BASE;
		dprintf("addr_6845:%x\n",addr_6845);
	} else {
		*cp = was;
		addr_6845 = CGA_BASE;
		dprintf("addr_6845:%x\n",addr_6845);
  1000cc:	c7 44 24 04 d4 03 00 	movl   $0x3d4,0x4(%esp)
  1000d3:	00 
  1000d4:	c7 04 24 60 ab 10 00 	movl   $0x10ab60,(%esp)
		cp = (uint16_t*) MONO_BUF;
		addr_6845 = MONO_BASE;
		dprintf("addr_6845:%x\n",addr_6845);
	} else {
		*cp = was;
		addr_6845 = CGA_BASE;
  1000db:	c7 05 f0 03 98 00 d4 	movl   $0x3d4,0x9803f0
  1000e2:	03 00 00 
		dprintf("addr_6845:%x\n",addr_6845);
  1000e5:	e8 b6 42 00 00       	call   1043a0 <dprintf>
  1000ea:	e9 5c ff ff ff       	jmp    10004b <video_init+0x4b>
  1000ef:	90                   	nop

001000f0 <video_putc>:
//  video_clear_screen();
}

void
video_putc(int c)
{
  1000f0:	83 ec 1c             	sub    $0x1c,%esp
  1000f3:	8b 44 24 20          	mov    0x20(%esp),%eax

	// if no attribute given, then use black on white
	if (!(c & ~0xFF))
		c |= 0x0700;
  1000f7:	89 c2                	mov    %eax,%edx
  1000f9:	80 ce 07             	or     $0x7,%dh
  1000fc:	a9 00 ff ff ff       	test   $0xffffff00,%eax
  100101:	0f 44 c2             	cmove  %edx,%eax

	switch (c & 0xff) {
  100104:	0f b6 d0             	movzbl %al,%edx
  100107:	83 fa 09             	cmp    $0x9,%edx
  10010a:	0f 84 64 01 00 00    	je     100274 <video_putc+0x184>
  100110:	0f 8e fa 00 00 00    	jle    100210 <video_putc+0x120>
  100116:	83 fa 0a             	cmp    $0xa,%edx
  100119:	0f 84 92 00 00 00    	je     1001b1 <video_putc+0xc1>
  10011f:	83 fa 0d             	cmp    $0xd,%edx
  100122:	0f b7 0d e8 03 98 00 	movzwl 0x9803e8,%ecx
  100129:	0f 85 1e 01 00 00    	jne    10024d <video_putc+0x15d>
		break;
	case '\n':
		terminal.crt_pos += CRT_COLS;
		/* fallthru */
	case '\r':
		terminal.crt_pos -= (terminal.crt_pos % CRT_COLS);
  10012f:	0f b7 c1             	movzwl %cx,%eax
  100132:	69 c0 cd cc 00 00    	imul   $0xcccd,%eax,%eax
  100138:	c1 e8 16             	shr    $0x16,%eax
  10013b:	8d 04 80             	lea    (%eax,%eax,4),%eax
  10013e:	c1 e0 04             	shl    $0x4,%eax
  100141:	66 a3 e8 03 98 00    	mov    %ax,0x9803e8
	default:
		terminal.crt_buf[terminal.crt_pos++] = c;		/* write the character */
		break;
	}

	if (terminal.crt_pos >= CRT_SIZE) {
  100147:	66 3d cf 07          	cmp    $0x7cf,%ax
  10014b:	77 73                	ja     1001c0 <video_putc+0xd0>
		terminal.crt_pos -= CRT_COLS;
	}


	/* move that little blinky thing */
	outb(addr_6845, 14);
  10014d:	a1 f0 03 98 00       	mov    0x9803f0,%eax
  100152:	c7 44 24 04 0e 00 00 	movl   $0xe,0x4(%esp)
  100159:	00 
  10015a:	89 04 24             	mov    %eax,(%esp)
  10015d:	e8 fe 4e 00 00       	call   105060 <outb>
	outb(addr_6845 + 1, terminal.crt_pos >> 8);
  100162:	0f b6 05 e9 03 98 00 	movzbl 0x9803e9,%eax
  100169:	89 44 24 04          	mov    %eax,0x4(%esp)
  10016d:	a1 f0 03 98 00       	mov    0x9803f0,%eax
  100172:	83 c0 01             	add    $0x1,%eax
  100175:	89 04 24             	mov    %eax,(%esp)
  100178:	e8 e3 4e 00 00       	call   105060 <outb>
	outb(addr_6845, 15);
  10017d:	a1 f0 03 98 00       	mov    0x9803f0,%eax
  100182:	c7 44 24 04 0f 00 00 	movl   $0xf,0x4(%esp)
  100189:	00 
  10018a:	89 04 24             	mov    %eax,(%esp)
  10018d:	e8 ce 4e 00 00       	call   105060 <outb>
	outb(addr_6845 + 1, terminal.crt_pos);
  100192:	0f b6 05 e8 03 98 00 	movzbl 0x9803e8,%eax
  100199:	89 44 24 04          	mov    %eax,0x4(%esp)
  10019d:	a1 f0 03 98 00       	mov    0x9803f0,%eax
  1001a2:	83 c0 01             	add    $0x1,%eax
  1001a5:	89 04 24             	mov    %eax,(%esp)
  1001a8:	e8 b3 4e 00 00       	call   105060 <outb>
       	  }
       outb(COM1+COM_TX, c);
       tmpcount++;
	  }
	*/
}
  1001ad:	83 c4 1c             	add    $0x1c,%esp
  1001b0:	c3                   	ret    
			terminal.crt_pos--;
			terminal.crt_buf[terminal.crt_pos] = (c & ~0xff) | ' ';
		}
		break;
	case '\n':
		terminal.crt_pos += CRT_COLS;
  1001b1:	0f b7 05 e8 03 98 00 	movzwl 0x9803e8,%eax
  1001b8:	8d 48 50             	lea    0x50(%eax),%ecx
  1001bb:	e9 6f ff ff ff       	jmp    10012f <video_putc+0x3f>
		break;
	}

	if (terminal.crt_pos >= CRT_SIZE) {
		int i;
		memmove(terminal.crt_buf, terminal.crt_buf + CRT_COLS,
  1001c0:	a1 e4 03 98 00       	mov    0x9803e4,%eax
  1001c5:	c7 44 24 08 00 0f 00 	movl   $0xf00,0x8(%esp)
  1001cc:	00 
  1001cd:	8d 90 a0 00 00 00    	lea    0xa0(%eax),%edx
  1001d3:	89 54 24 04          	mov    %edx,0x4(%esp)
  1001d7:	89 04 24             	mov    %eax,(%esp)
  1001da:	e8 f1 3b 00 00       	call   103dd0 <memmove>
  1001df:	8b 15 e4 03 98 00    	mov    0x9803e4,%edx
			(CRT_SIZE - CRT_COLS) * sizeof(uint16_t));
		for (i = CRT_SIZE - CRT_COLS; i < CRT_SIZE; i++)
  1001e5:	b8 80 07 00 00       	mov    $0x780,%eax
  1001ea:	8d b6 00 00 00 00    	lea    0x0(%esi),%esi
			terminal.crt_buf[i] = 0x0700 | ' ';
  1001f0:	b9 20 07 00 00       	mov    $0x720,%ecx
  1001f5:	66 89 0c 42          	mov    %cx,(%edx,%eax,2)

	if (terminal.crt_pos >= CRT_SIZE) {
		int i;
		memmove(terminal.crt_buf, terminal.crt_buf + CRT_COLS,
			(CRT_SIZE - CRT_COLS) * sizeof(uint16_t));
		for (i = CRT_SIZE - CRT_COLS; i < CRT_SIZE; i++)
  1001f9:	83 c0 01             	add    $0x1,%eax
  1001fc:	3d d0 07 00 00       	cmp    $0x7d0,%eax
  100201:	75 ed                	jne    1001f0 <video_putc+0x100>
			terminal.crt_buf[i] = 0x0700 | ' ';
		terminal.crt_pos -= CRT_COLS;
  100203:	66 83 2d e8 03 98 00 	subw   $0x50,0x9803e8
  10020a:	50 
  10020b:	e9 3d ff ff ff       	jmp    10014d <video_putc+0x5d>

	// if no attribute given, then use black on white
	if (!(c & ~0xFF))
		c |= 0x0700;

	switch (c & 0xff) {
  100210:	83 fa 08             	cmp    $0x8,%edx
  100213:	75 38                	jne    10024d <video_putc+0x15d>
	case '\b':
		if (terminal.crt_pos > 0) {
  100215:	0f b7 15 e8 03 98 00 	movzwl 0x9803e8,%edx
  10021c:	66 85 d2             	test   %dx,%dx
  10021f:	0f 84 28 ff ff ff    	je     10014d <video_putc+0x5d>
			terminal.crt_pos--;
			terminal.crt_buf[terminal.crt_pos] = (c & ~0xff) | ' ';
  100225:	8b 0d e4 03 98 00    	mov    0x9803e4,%ecx
		c |= 0x0700;

	switch (c & 0xff) {
	case '\b':
		if (terminal.crt_pos > 0) {
			terminal.crt_pos--;
  10022b:	83 ea 01             	sub    $0x1,%edx
			terminal.crt_buf[terminal.crt_pos] = (c & ~0xff) | ' ';
  10022e:	30 c0                	xor    %al,%al
		c |= 0x0700;

	switch (c & 0xff) {
	case '\b':
		if (terminal.crt_pos > 0) {
			terminal.crt_pos--;
  100230:	66 89 15 e8 03 98 00 	mov    %dx,0x9803e8
			terminal.crt_buf[terminal.crt_pos] = (c & ~0xff) | ' ';
  100237:	83 c8 20             	or     $0x20,%eax
  10023a:	0f b7 d2             	movzwl %dx,%edx
  10023d:	66 89 04 51          	mov    %ax,(%ecx,%edx,2)
  100241:	0f b7 05 e8 03 98 00 	movzwl 0x9803e8,%eax
  100248:	e9 fa fe ff ff       	jmp    100147 <video_putc+0x57>
		video_putc(' ');
		video_putc(' ');
		video_putc(' ');
		break;
	default:
		terminal.crt_buf[terminal.crt_pos++] = c;		/* write the character */
  10024d:	0f b7 15 e8 03 98 00 	movzwl 0x9803e8,%edx
  100254:	8d 4a 01             	lea    0x1(%edx),%ecx
  100257:	66 89 0d e8 03 98 00 	mov    %cx,0x9803e8
  10025e:	8b 0d e4 03 98 00    	mov    0x9803e4,%ecx
  100264:	66 89 04 51          	mov    %ax,(%ecx,%edx,2)
  100268:	0f b7 05 e8 03 98 00 	movzwl 0x9803e8,%eax
		break;
  10026f:	e9 d3 fe ff ff       	jmp    100147 <video_putc+0x57>
		/* fallthru */
	case '\r':
		terminal.crt_pos -= (terminal.crt_pos % CRT_COLS);
		break;
	case '\t':
		video_putc(' ');
  100274:	c7 04 24 20 00 00 00 	movl   $0x20,(%esp)
  10027b:	e8 70 fe ff ff       	call   1000f0 <video_putc>
		video_putc(' ');
  100280:	c7 04 24 20 00 00 00 	movl   $0x20,(%esp)
  100287:	e8 64 fe ff ff       	call   1000f0 <video_putc>
		video_putc(' ');
  10028c:	c7 04 24 20 00 00 00 	movl   $0x20,(%esp)
  100293:	e8 58 fe ff ff       	call   1000f0 <video_putc>
		video_putc(' ');
  100298:	c7 04 24 20 00 00 00 	movl   $0x20,(%esp)
  10029f:	e8 4c fe ff ff       	call   1000f0 <video_putc>
		video_putc(' ');
  1002a4:	c7 04 24 20 00 00 00 	movl   $0x20,(%esp)
  1002ab:	e8 40 fe ff ff       	call   1000f0 <video_putc>
  1002b0:	0f b7 05 e8 03 98 00 	movzwl 0x9803e8,%eax
		break;
  1002b7:	e9 8b fe ff ff       	jmp    100147 <video_putc+0x57>
  1002bc:	8d 74 26 00          	lea    0x0(%esi,%eiz,1),%esi

001002c0 <video_set_cursor>:
	*/
}

void
video_set_cursor (int x, int y)
{
  1002c0:	8b 44 24 04          	mov    0x4(%esp),%eax
    terminal.crt_pos = x * CRT_COLS + y;
  1002c4:	8d 04 80             	lea    (%eax,%eax,4),%eax
  1002c7:	c1 e0 04             	shl    $0x4,%eax
  1002ca:	66 03 44 24 08       	add    0x8(%esp),%ax
  1002cf:	66 a3 e8 03 98 00    	mov    %ax,0x9803e8
  1002d5:	c3                   	ret    
  1002d6:	8d 76 00             	lea    0x0(%esi),%esi
  1002d9:	8d bc 27 00 00 00 00 	lea    0x0(%edi,%eiz,1),%edi

001002e0 <video_clear_screen>:
}

void
video_clear_screen ()
{
  1002e0:	8b 15 e4 03 98 00    	mov    0x9803e4,%edx
    int i;
    for (i = 0; i < CRT_SIZE; i++)
  1002e6:	31 c0                	xor    %eax,%eax
    {
        terminal.crt_buf[i] = ' ';
  1002e8:	b9 20 00 00 00       	mov    $0x20,%ecx
  1002ed:	66 89 0c 42          	mov    %cx,(%edx,%eax,2)

void
video_clear_screen ()
{
    int i;
    for (i = 0; i < CRT_SIZE; i++)
  1002f1:	83 c0 01             	add    $0x1,%eax
  1002f4:	3d d0 07 00 00       	cmp    $0x7d0,%eax
  1002f9:	75 ed                	jne    1002e8 <video_clear_screen+0x8>
    {
        terminal.crt_buf[i] = ' ';
    }
}
  1002fb:	f3 c3                	repz ret 
  1002fd:	66 90                	xchg   %ax,%ax
  1002ff:	90                   	nop

00100300 <cons_init>:
	uint32_t rpos, wpos;
} cons;

void
cons_init()
{
  100300:	83 ec 1c             	sub    $0x1c,%esp
	memset(&cons, 0x0, sizeof(cons));
  100303:	c7 44 24 08 08 02 00 	movl   $0x208,0x8(%esp)
  10030a:	00 
  10030b:	c7 44 24 04 00 00 00 	movl   $0x0,0x4(%esp)
  100312:	00 
  100313:	c7 04 24 20 04 98 00 	movl   $0x980420,(%esp)
  10031a:	e8 51 3a 00 00       	call   103d70 <memset>
	serial_init();
  10031f:	e8 6c 03 00 00       	call   100690 <serial_init>
	video_init();
  100324:	e8 d7 fc ff ff       	call   100000 <video_init>
	spinlock_init(&cons_lk);
  100329:	c7 04 24 00 04 98 00 	movl   $0x980400,(%esp)
  100330:	e8 7b 55 00 00       	call   1058b0 <spinlock_init>
}
  100335:	83 c4 1c             	add    $0x1c,%esp
  100338:	c3                   	ret    
  100339:	8d b4 26 00 00 00 00 	lea    0x0(%esi,%eiz,1),%esi

00100340 <cons_intr>:

void
cons_intr(int (*proc)(void))
{
  100340:	53                   	push   %ebx
  100341:	83 ec 18             	sub    $0x18,%esp
	int c;


	spinlock_acquire(&cons_lk);
  100344:	c7 04 24 00 04 98 00 	movl   $0x980400,(%esp)
	spinlock_init(&cons_lk);
}

void
cons_intr(int (*proc)(void))
{
  10034b:	8b 5c 24 20          	mov    0x20(%esp),%ebx
	int c;


	spinlock_acquire(&cons_lk);
  10034f:	e8 1c 57 00 00       	call   105a70 <spinlock_acquire>
  100354:	8d 74 26 00          	lea    0x0(%esi,%eiz,1),%esi

	while ((c = (*proc)()) != -1) {
  100358:	ff d3                	call   *%ebx
  10035a:	83 f8 ff             	cmp    $0xffffffff,%eax
  10035d:	74 39                	je     100398 <cons_intr+0x58>
		if (c == 0)
  10035f:	85 c0                	test   %eax,%eax
  100361:	74 f5                	je     100358 <cons_intr+0x18>
			continue;
		cons.buf[cons.wpos++] = c;
  100363:	8b 0d 24 06 98 00    	mov    0x980624,%ecx
  100369:	8d 51 01             	lea    0x1(%ecx),%edx
		if (cons.wpos == CONSOLE_BUFFER_SIZE)
  10036c:	81 fa 00 02 00 00    	cmp    $0x200,%edx
	spinlock_acquire(&cons_lk);

	while ((c = (*proc)()) != -1) {
		if (c == 0)
			continue;
		cons.buf[cons.wpos++] = c;
  100372:	89 15 24 06 98 00    	mov    %edx,0x980624
  100378:	88 81 20 04 98 00    	mov    %al,0x980420(%ecx)
		if (cons.wpos == CONSOLE_BUFFER_SIZE)
  10037e:	75 d8                	jne    100358 <cons_intr+0x18>
			cons.wpos = 0;
  100380:	c7 05 24 06 98 00 00 	movl   $0x0,0x980624
  100387:	00 00 00 
	int c;


	spinlock_acquire(&cons_lk);

	while ((c = (*proc)()) != -1) {
  10038a:	ff d3                	call   *%ebx
  10038c:	83 f8 ff             	cmp    $0xffffffff,%eax
  10038f:	75 ce                	jne    10035f <cons_intr+0x1f>
  100391:	8d b4 26 00 00 00 00 	lea    0x0(%esi,%eiz,1),%esi
		cons.buf[cons.wpos++] = c;
		if (cons.wpos == CONSOLE_BUFFER_SIZE)
			cons.wpos = 0;
	}

	spinlock_release(&cons_lk);
  100398:	c7 44 24 20 00 04 98 	movl   $0x980400,0x20(%esp)
  10039f:	00 
}
  1003a0:	83 c4 18             	add    $0x18,%esp
  1003a3:	5b                   	pop    %ebx
		cons.buf[cons.wpos++] = c;
		if (cons.wpos == CONSOLE_BUFFER_SIZE)
			cons.wpos = 0;
	}

	spinlock_release(&cons_lk);
  1003a4:	e9 47 57 00 00       	jmp    105af0 <spinlock_release>
  1003a9:	8d b4 26 00 00 00 00 	lea    0x0(%esi,%eiz,1),%esi

001003b0 <cons_getc>:
}

char
cons_getc(void)
{
  1003b0:	53                   	push   %ebx
  1003b1:	83 ec 18             	sub    $0x18,%esp


  // poll for any pending input characters,
  // so that this function works even when interrupts are disabled
  // (e.g., when called from the kernel monitor).
  serial_intr();
  1003b4:	e8 e7 01 00 00       	call   1005a0 <serial_intr>
  keyboard_intr();
  1003b9:	e8 f2 04 00 00       	call   1008b0 <keyboard_intr>

  spinlock_acquire(&cons_lk);
  1003be:	c7 04 24 00 04 98 00 	movl   $0x980400,(%esp)
  1003c5:	e8 a6 56 00 00       	call   105a70 <spinlock_acquire>
  // grab the next character from the input buffer.
  if (cons.rpos != cons.wpos) {
  1003ca:	a1 20 06 98 00       	mov    0x980620,%eax
  1003cf:	3b 05 24 06 98 00    	cmp    0x980624,%eax
  1003d5:	74 39                	je     100410 <cons_getc+0x60>
    c = cons.buf[cons.rpos++];
  1003d7:	8d 50 01             	lea    0x1(%eax),%edx
  1003da:	0f b6 98 20 04 98 00 	movzbl 0x980420(%eax),%ebx
    if (cons.rpos == CONSOLE_BUFFER_SIZE)
  1003e1:	81 fa 00 02 00 00    	cmp    $0x200,%edx
  keyboard_intr();

  spinlock_acquire(&cons_lk);
  // grab the next character from the input buffer.
  if (cons.rpos != cons.wpos) {
    c = cons.buf[cons.rpos++];
  1003e7:	89 15 20 06 98 00    	mov    %edx,0x980620
    if (cons.rpos == CONSOLE_BUFFER_SIZE)
  1003ed:	75 0a                	jne    1003f9 <cons_getc+0x49>
      cons.rpos = 0;
  1003ef:	c7 05 20 06 98 00 00 	movl   $0x0,0x980620
  1003f6:	00 00 00 
      spinlock_release(&cons_lk);
  1003f9:	c7 04 24 00 04 98 00 	movl   $0x980400,(%esp)
  100400:	e8 eb 56 00 00       	call   105af0 <spinlock_release>
    return c;
  }

  spinlock_release(&cons_lk);
  return 0;
}
  100405:	83 c4 18             	add    $0x18,%esp
  100408:	89 d8                	mov    %ebx,%eax
  10040a:	5b                   	pop    %ebx
  10040b:	c3                   	ret    
  10040c:	8d 74 26 00          	lea    0x0(%esi,%eiz,1),%esi
      cons.rpos = 0;
      spinlock_release(&cons_lk);
    return c;
  }

  spinlock_release(&cons_lk);
  100410:	c7 04 24 00 04 98 00 	movl   $0x980400,(%esp)
  return 0;
  100417:	31 db                	xor    %ebx,%ebx
      cons.rpos = 0;
      spinlock_release(&cons_lk);
    return c;
  }

  spinlock_release(&cons_lk);
  100419:	e8 d2 56 00 00       	call   105af0 <spinlock_release>
  return 0;
}
  10041e:	83 c4 18             	add    $0x18,%esp
  100421:	89 d8                	mov    %ebx,%eax
  100423:	5b                   	pop    %ebx
  100424:	c3                   	ret    
  100425:	8d 74 26 00          	lea    0x0(%esi,%eiz,1),%esi
  100429:	8d bc 27 00 00 00 00 	lea    0x0(%edi,%eiz,1),%edi

00100430 <cons_putc>:

void
cons_putc(char c)
{
  100430:	53                   	push   %ebx
  100431:	83 ec 18             	sub    $0x18,%esp
	serial_putc(c);
  100434:	0f be 5c 24 20       	movsbl 0x20(%esp),%ebx
  100439:	89 1c 24             	mov    %ebx,(%esp)
  10043c:	e8 8f 01 00 00       	call   1005d0 <serial_putc>
  video_putc(c);
  100441:	89 5c 24 20          	mov    %ebx,0x20(%esp)
}
  100445:	83 c4 18             	add    $0x18,%esp
  100448:	5b                   	pop    %ebx

void
cons_putc(char c)
{
	serial_putc(c);
  video_putc(c);
  100449:	e9 a2 fc ff ff       	jmp    1000f0 <video_putc>
  10044e:	66 90                	xchg   %ax,%ax

00100450 <getchar>:
}

char
getchar(void)
{
  100450:	83 ec 0c             	sub    $0xc,%esp
  100453:	90                   	nop
  100454:	8d 74 26 00          	lea    0x0(%esi,%eiz,1),%esi
  char c;

  while ((c = cons_getc()) == 0)
  100458:	e8 53 ff ff ff       	call   1003b0 <cons_getc>
  10045d:	84 c0                	test   %al,%al
  10045f:	74 f7                	je     100458 <getchar+0x8>
    /* do nothing */;
  return c;
}
  100461:	83 c4 0c             	add    $0xc,%esp
  100464:	c3                   	ret    
  100465:	8d 74 26 00          	lea    0x0(%esi,%eiz,1),%esi
  100469:	8d bc 27 00 00 00 00 	lea    0x0(%edi,%eiz,1),%edi

00100470 <putchar>:

void
putchar(char c)
{
  100470:	53                   	push   %ebx
  100471:	83 ec 18             	sub    $0x18,%esp
}

void
cons_putc(char c)
{
	serial_putc(c);
  100474:	0f be 5c 24 20       	movsbl 0x20(%esp),%ebx
  100479:	89 1c 24             	mov    %ebx,(%esp)
  10047c:	e8 4f 01 00 00       	call   1005d0 <serial_putc>
  video_putc(c);
  100481:	89 5c 24 20          	mov    %ebx,0x20(%esp)

void
putchar(char c)
{
  cons_putc(c);
}
  100485:	83 c4 18             	add    $0x18,%esp
  100488:	5b                   	pop    %ebx

void
cons_putc(char c)
{
	serial_putc(c);
  video_putc(c);
  100489:	e9 62 fc ff ff       	jmp    1000f0 <video_putc>
  10048e:	66 90                	xchg   %ax,%ax

00100490 <readline>:
  cons_putc(c);
}

char *
readline(const char *prompt)
{
  100490:	56                   	push   %esi
  100491:	53                   	push   %ebx
  100492:	83 ec 14             	sub    $0x14,%esp
  100495:	8b 44 24 20          	mov    0x20(%esp),%eax
  int i;
  char c;

  if (prompt != NULL)
  100499:	85 c0                	test   %eax,%eax
  10049b:	74 10                	je     1004ad <readline+0x1d>
    dprintf("%s", prompt);
  10049d:	89 44 24 04          	mov    %eax,0x4(%esp)
  1004a1:	c7 04 24 6e ab 10 00 	movl   $0x10ab6e,(%esp)
  1004a8:	e8 f3 3e 00 00       	call   1043a0 <dprintf>
    } else if ((c == '\b' || c == '\x7f') && i > 0) {
      putchar('\b');
      i--;
    } else if (c >= ' ' && i < BUFLEN-1) {
      putchar(c);
      linebuf[i++] = c;
  1004ad:	31 db                	xor    %ebx,%ebx
  1004af:	90                   	nop
char
getchar(void)
{
  char c;

  while ((c = cons_getc()) == 0)
  1004b0:	e8 fb fe ff ff       	call   1003b0 <cons_getc>
  1004b5:	84 c0                	test   %al,%al
  1004b7:	74 f7                	je     1004b0 <readline+0x20>
    dprintf("%s", prompt);

  i = 0;
  while (1) {
    c = getchar();
    if (c < 0) {
  1004b9:	0f 88 92 00 00 00    	js     100551 <readline+0xc1>
      dprintf("read error: %e\n", c);
      return NULL;
    } else if ((c == '\b' || c == '\x7f') && i > 0) {
  1004bf:	3c 7f                	cmp    $0x7f,%al
  1004c1:	74 04                	je     1004c7 <readline+0x37>
  1004c3:	3c 08                	cmp    $0x8,%al
  1004c5:	75 21                	jne    1004e8 <readline+0x58>
  1004c7:	85 db                	test   %ebx,%ebx
  1004c9:	74 1d                	je     1004e8 <readline+0x58>
}

void
cons_putc(char c)
{
	serial_putc(c);
  1004cb:	c7 04 24 08 00 00 00 	movl   $0x8,(%esp)
    if (c < 0) {
      dprintf("read error: %e\n", c);
      return NULL;
    } else if ((c == '\b' || c == '\x7f') && i > 0) {
      putchar('\b');
      i--;
  1004d2:	83 eb 01             	sub    $0x1,%ebx
}

void
cons_putc(char c)
{
	serial_putc(c);
  1004d5:	e8 f6 00 00 00       	call   1005d0 <serial_putc>
  video_putc(c);
  1004da:	c7 04 24 08 00 00 00 	movl   $0x8,(%esp)
  1004e1:	e8 0a fc ff ff       	call   1000f0 <video_putc>
    if (c < 0) {
      dprintf("read error: %e\n", c);
      return NULL;
    } else if ((c == '\b' || c == '\x7f') && i > 0) {
      putchar('\b');
      i--;
  1004e6:	eb c8                	jmp    1004b0 <readline+0x20>
    } else if (c >= ' ' && i < BUFLEN-1) {
  1004e8:	3c 1f                	cmp    $0x1f,%al
  1004ea:	7f 34                	jg     100520 <readline+0x90>
      putchar(c);
      linebuf[i++] = c;
    } else if (c == '\n' || c == '\r') {
  1004ec:	3c 0d                	cmp    $0xd,%al
  1004ee:	66 90                	xchg   %ax,%ax
  1004f0:	74 04                	je     1004f6 <readline+0x66>
  1004f2:	3c 0a                	cmp    $0xa,%al
  1004f4:	75 ba                	jne    1004b0 <readline+0x20>
}

void
cons_putc(char c)
{
	serial_putc(c);
  1004f6:	c7 04 24 0a 00 00 00 	movl   $0xa,(%esp)
  1004fd:	e8 ce 00 00 00       	call   1005d0 <serial_putc>
  video_putc(c);
  100502:	c7 04 24 0a 00 00 00 	movl   $0xa,(%esp)
  100509:	e8 e2 fb ff ff       	call   1000f0 <video_putc>
      putchar(c);
      linebuf[i++] = c;
    } else if (c == '\n' || c == '\r') {
      putchar('\n');
      linebuf[i] = 0;
      return linebuf;
  10050e:	b8 00 f0 13 00       	mov    $0x13f000,%eax
    } else if (c >= ' ' && i < BUFLEN-1) {
      putchar(c);
      linebuf[i++] = c;
    } else if (c == '\n' || c == '\r') {
      putchar('\n');
      linebuf[i] = 0;
  100513:	c6 83 00 f0 13 00 00 	movb   $0x0,0x13f000(%ebx)
      return linebuf;
    }
  }
}
  10051a:	83 c4 14             	add    $0x14,%esp
  10051d:	5b                   	pop    %ebx
  10051e:	5e                   	pop    %esi
  10051f:	c3                   	ret    
      dprintf("read error: %e\n", c);
      return NULL;
    } else if ((c == '\b' || c == '\x7f') && i > 0) {
      putchar('\b');
      i--;
    } else if (c >= ' ' && i < BUFLEN-1) {
  100520:	81 fb fe 03 00 00    	cmp    $0x3fe,%ebx
  100526:	7f c4                	jg     1004ec <readline+0x5c>
}

void
cons_putc(char c)
{
	serial_putc(c);
  100528:	0f be f0             	movsbl %al,%esi
    } else if ((c == '\b' || c == '\x7f') && i > 0) {
      putchar('\b');
      i--;
    } else if (c >= ' ' && i < BUFLEN-1) {
      putchar(c);
      linebuf[i++] = c;
  10052b:	83 c3 01             	add    $0x1,%ebx
}

void
cons_putc(char c)
{
	serial_putc(c);
  10052e:	89 34 24             	mov    %esi,(%esp)
  100531:	89 44 24 0c          	mov    %eax,0xc(%esp)
  100535:	e8 96 00 00 00       	call   1005d0 <serial_putc>
  video_putc(c);
  10053a:	89 34 24             	mov    %esi,(%esp)
  10053d:	e8 ae fb ff ff       	call   1000f0 <video_putc>
    } else if ((c == '\b' || c == '\x7f') && i > 0) {
      putchar('\b');
      i--;
    } else if (c >= ' ' && i < BUFLEN-1) {
      putchar(c);
      linebuf[i++] = c;
  100542:	8b 44 24 0c          	mov    0xc(%esp),%eax
  100546:	88 83 ff ef 13 00    	mov    %al,0x13efff(%ebx)
  10054c:	e9 5f ff ff ff       	jmp    1004b0 <readline+0x20>

  i = 0;
  while (1) {
    c = getchar();
    if (c < 0) {
      dprintf("read error: %e\n", c);
  100551:	0f be c0             	movsbl %al,%eax
  100554:	89 44 24 04          	mov    %eax,0x4(%esp)
  100558:	c7 04 24 71 ab 10 00 	movl   $0x10ab71,(%esp)
  10055f:	e8 3c 3e 00 00       	call   1043a0 <dprintf>
      putchar('\n');
      linebuf[i] = 0;
      return linebuf;
    }
  }
}
  100564:	83 c4 14             	add    $0x14,%esp
  i = 0;
  while (1) {
    c = getchar();
    if (c < 0) {
      dprintf("read error: %e\n", c);
      return NULL;
  100567:	31 c0                	xor    %eax,%eax
      putchar('\n');
      linebuf[i] = 0;
      return linebuf;
    }
  }
}
  100569:	5b                   	pop    %ebx
  10056a:	5e                   	pop    %esi
  10056b:	c3                   	ret    
  10056c:	66 90                	xchg   %ax,%ax
  10056e:	66 90                	xchg   %ax,%ax

00100570 <serial_proc_data>:
	inb(0x84);
}

static int
serial_proc_data(void)
{
  100570:	83 ec 1c             	sub    $0x1c,%esp
	if (!(inb(COM1+COM_LSR) & COM_LSR_DATA))
  100573:	c7 04 24 fd 03 00 00 	movl   $0x3fd,(%esp)
  10057a:	e8 b1 4a 00 00       	call   105030 <inb>
  10057f:	a8 01                	test   $0x1,%al
  100581:	74 15                	je     100598 <serial_proc_data+0x28>
		return -1;
	return inb(COM1+COM_RX);
  100583:	c7 04 24 f8 03 00 00 	movl   $0x3f8,(%esp)
  10058a:	e8 a1 4a 00 00       	call   105030 <inb>
  10058f:	0f b6 c0             	movzbl %al,%eax
}
  100592:	83 c4 1c             	add    $0x1c,%esp
  100595:	c3                   	ret    
  100596:	66 90                	xchg   %ax,%ax

static int
serial_proc_data(void)
{
	if (!(inb(COM1+COM_LSR) & COM_LSR_DATA))
		return -1;
  100598:	b8 ff ff ff ff       	mov    $0xffffffff,%eax
  10059d:	eb f3                	jmp    100592 <serial_proc_data+0x22>
  10059f:	90                   	nop

001005a0 <serial_intr>:
}

void
serial_intr(void)
{
	if (serial_exists)
  1005a0:	80 3d 28 06 98 00 00 	cmpb   $0x0,0x980628
  1005a7:	75 07                	jne    1005b0 <serial_intr+0x10>
		cons_intr(serial_proc_data);
}
  1005a9:	c3                   	ret    
  1005aa:	8d b6 00 00 00 00    	lea    0x0(%esi),%esi
	return inb(COM1+COM_RX);
}

void
serial_intr(void)
{
  1005b0:	83 ec 1c             	sub    $0x1c,%esp
	if (serial_exists)
		cons_intr(serial_proc_data);
  1005b3:	c7 04 24 70 05 10 00 	movl   $0x100570,(%esp)
  1005ba:	e8 81 fd ff ff       	call   100340 <cons_intr>
}
  1005bf:	83 c4 1c             	add    $0x1c,%esp
  1005c2:	c3                   	ret    
  1005c3:	8d b6 00 00 00 00    	lea    0x0(%esi),%esi
  1005c9:	8d bc 27 00 00 00 00 	lea    0x0(%edi,%eiz,1),%edi

001005d0 <serial_putc>:
		return 0;
}

void
serial_putc(char c)
{
  1005d0:	56                   	push   %esi
  1005d1:	53                   	push   %ebx
	if (!serial_exists)
  1005d2:	bb 01 32 00 00       	mov    $0x3201,%ebx
		return 0;
}

void
serial_putc(char c)
{
  1005d7:	83 ec 14             	sub    $0x14,%esp
	if (!serial_exists)
  1005da:	80 3d 28 06 98 00 00 	cmpb   $0x0,0x980628
		return 0;
}

void
serial_putc(char c)
{
  1005e1:	8b 74 24 20          	mov    0x20(%esp),%esi
	if (!serial_exists)
  1005e5:	75 3e                	jne    100625 <serial_putc+0x55>
  1005e7:	eb 67                	jmp    100650 <serial_putc+0x80>
  1005e9:	8d b4 26 00 00 00 00 	lea    0x0(%esi,%eiz,1),%esi
		return;

	int i;
	for (i = 0;
	     !(inb(COM1 + COM_LSR) & COM_LSR_TXRDY) && i < 12800;
  1005f0:	83 eb 01             	sub    $0x1,%ebx
  1005f3:	74 40                	je     100635 <serial_putc+0x65>

// Stupid I/O delay routine necessitated by historical PC design flaws
static void
delay(void)
{
	inb(0x84);
  1005f5:	c7 04 24 84 00 00 00 	movl   $0x84,(%esp)
  1005fc:	e8 2f 4a 00 00       	call   105030 <inb>
	inb(0x84);
  100601:	c7 04 24 84 00 00 00 	movl   $0x84,(%esp)
  100608:	e8 23 4a 00 00       	call   105030 <inb>
	inb(0x84);
  10060d:	c7 04 24 84 00 00 00 	movl   $0x84,(%esp)
  100614:	e8 17 4a 00 00       	call   105030 <inb>
	inb(0x84);
  100619:	c7 04 24 84 00 00 00 	movl   $0x84,(%esp)
  100620:	e8 0b 4a 00 00       	call   105030 <inb>
	if (!serial_exists)
		return;

	int i;
	for (i = 0;
	     !(inb(COM1 + COM_LSR) & COM_LSR_TXRDY) && i < 12800;
  100625:	c7 04 24 fd 03 00 00 	movl   $0x3fd,(%esp)
  10062c:	e8 ff 49 00 00       	call   105030 <inb>
{
	if (!serial_exists)
		return;

	int i;
	for (i = 0;
  100631:	a8 20                	test   $0x20,%al
  100633:	74 bb                	je     1005f0 <serial_putc+0x20>
	int nl = '\n';
	/* POSIX requires newline on the serial line to
	 * be a CR-LF pair. Without this, you get a malformed output
	 * with clients like minicom or screen
	 */
	if (c == nl) {
  100635:	89 f0                	mov    %esi,%eax
  100637:	3c 0a                	cmp    $0xa,%al
  100639:	74 1d                	je     100658 <serial_putc+0x88>
	     !(inb(COM1 + COM_LSR) & COM_LSR_TXRDY) && i < 12800;
	     i++)
		delay();

	if (!serial_reformatnewline(c, COM1 + COM_TX))
		outb(COM1 + COM_TX, c);
  10063b:	89 f0                	mov    %esi,%eax
  10063d:	0f b6 f0             	movzbl %al,%esi
  100640:	89 74 24 04          	mov    %esi,0x4(%esp)
  100644:	c7 04 24 f8 03 00 00 	movl   $0x3f8,(%esp)
  10064b:	e8 10 4a 00 00       	call   105060 <outb>
}
  100650:	83 c4 14             	add    $0x14,%esp
  100653:	5b                   	pop    %ebx
  100654:	5e                   	pop    %esi
  100655:	c3                   	ret    
  100656:	66 90                	xchg   %ax,%ax
	/* POSIX requires newline on the serial line to
	 * be a CR-LF pair. Without this, you get a malformed output
	 * with clients like minicom or screen
	 */
	if (c == nl) {
		outb(p, cr);
  100658:	c7 44 24 04 0d 00 00 	movl   $0xd,0x4(%esp)
  10065f:	00 
  100660:	c7 04 24 f8 03 00 00 	movl   $0x3f8,(%esp)
  100667:	e8 f4 49 00 00       	call   105060 <outb>
		outb(p, nl);
  10066c:	c7 44 24 04 0a 00 00 	movl   $0xa,0x4(%esp)
  100673:	00 
  100674:	c7 04 24 f8 03 00 00 	movl   $0x3f8,(%esp)
  10067b:	e8 e0 49 00 00       	call   105060 <outb>
	     i++)
		delay();

	if (!serial_reformatnewline(c, COM1 + COM_TX))
		outb(COM1 + COM_TX, c);
}
  100680:	83 c4 14             	add    $0x14,%esp
  100683:	5b                   	pop    %ebx
  100684:	5e                   	pop    %esi
  100685:	c3                   	ret    
  100686:	8d 76 00             	lea    0x0(%esi),%esi
  100689:	8d bc 27 00 00 00 00 	lea    0x0(%edi,%eiz,1),%edi

00100690 <serial_init>:

void
serial_init(void)
{
  100690:	83 ec 1c             	sub    $0x1c,%esp
	/* turn off interrupt */
	outb(COM1 + COM_IER, 0);
  100693:	c7 44 24 04 00 00 00 	movl   $0x0,0x4(%esp)
  10069a:	00 
  10069b:	c7 04 24 f9 03 00 00 	movl   $0x3f9,(%esp)
  1006a2:	e8 b9 49 00 00       	call   105060 <outb>

	/* set DLAB */
	outb(COM1 + COM_LCR, COM_LCR_DLAB);
  1006a7:	c7 44 24 04 80 00 00 	movl   $0x80,0x4(%esp)
  1006ae:	00 
  1006af:	c7 04 24 fb 03 00 00 	movl   $0x3fb,(%esp)
  1006b6:	e8 a5 49 00 00       	call   105060 <outb>

	/* set baud rate */
	outb(COM1 + COM_DLL, 0x0001 & 0xff);
  1006bb:	c7 44 24 04 01 00 00 	movl   $0x1,0x4(%esp)
  1006c2:	00 
  1006c3:	c7 04 24 f8 03 00 00 	movl   $0x3f8,(%esp)
  1006ca:	e8 91 49 00 00       	call   105060 <outb>
	outb(COM1 + COM_DLM, 0x0001 >> 8);
  1006cf:	c7 44 24 04 00 00 00 	movl   $0x0,0x4(%esp)
  1006d6:	00 
  1006d7:	c7 04 24 f9 03 00 00 	movl   $0x3f9,(%esp)
  1006de:	e8 7d 49 00 00       	call   105060 <outb>

	/* Set the line status.  */
	outb(COM1 + COM_LCR, COM_LCR_WLEN8 & ~COM_LCR_DLAB);
  1006e3:	c7 44 24 04 03 00 00 	movl   $0x3,0x4(%esp)
  1006ea:	00 
  1006eb:	c7 04 24 fb 03 00 00 	movl   $0x3fb,(%esp)
  1006f2:	e8 69 49 00 00       	call   105060 <outb>

	/* Enable the FIFO.  */
	outb(COM1 + COM_FCR, 0xc7);
  1006f7:	c7 44 24 04 c7 00 00 	movl   $0xc7,0x4(%esp)
  1006fe:	00 
  1006ff:	c7 04 24 fa 03 00 00 	movl   $0x3fa,(%esp)
  100706:	e8 55 49 00 00       	call   105060 <outb>

	/* Turn on DTR, RTS, and OUT2.  */
	outb(COM1 + COM_MCR, 0x0b);
  10070b:	c7 44 24 04 0b 00 00 	movl   $0xb,0x4(%esp)
  100712:	00 
  100713:	c7 04 24 fc 03 00 00 	movl   $0x3fc,(%esp)
  10071a:	e8 41 49 00 00       	call   105060 <outb>

	// Clear any preexisting overrun indications and interrupts
	// Serial COM1 doesn't exist if COM_LSR returns 0xFF
	serial_exists = (inb(COM1+COM_LSR) != 0xFF);
  10071f:	c7 04 24 fd 03 00 00 	movl   $0x3fd,(%esp)
  100726:	e8 05 49 00 00       	call   105030 <inb>
	(void) inb(COM1+COM_IIR);
  10072b:	c7 04 24 fa 03 00 00 	movl   $0x3fa,(%esp)
	/* Turn on DTR, RTS, and OUT2.  */
	outb(COM1 + COM_MCR, 0x0b);

	// Clear any preexisting overrun indications and interrupts
	// Serial COM1 doesn't exist if COM_LSR returns 0xFF
	serial_exists = (inb(COM1+COM_LSR) != 0xFF);
  100732:	3c ff                	cmp    $0xff,%al
  100734:	0f 95 05 28 06 98 00 	setne  0x980628
	(void) inb(COM1+COM_IIR);
  10073b:	e8 f0 48 00 00       	call   105030 <inb>
	(void) inb(COM1+COM_RX);
  100740:	c7 04 24 f8 03 00 00 	movl   $0x3f8,(%esp)
  100747:	e8 e4 48 00 00       	call   105030 <inb>
}
  10074c:	83 c4 1c             	add    $0x1c,%esp
  10074f:	c3                   	ret    

00100750 <serial_intenable>:

void
serial_intenable(void)
{
	if (serial_exists) {
  100750:	80 3d 28 06 98 00 00 	cmpb   $0x0,0x980628
  100757:	75 07                	jne    100760 <serial_intenable+0x10>
		outb(COM1+COM_IER, 1);
		//intr_enable(IRQ_SERIAL13);
		serial_intr();
	}
}
  100759:	c3                   	ret    
  10075a:	8d b6 00 00 00 00    	lea    0x0(%esi),%esi
	(void) inb(COM1+COM_RX);
}

void
serial_intenable(void)
{
  100760:	83 ec 1c             	sub    $0x1c,%esp
	if (serial_exists) {
		outb(COM1+COM_IER, 1);
  100763:	c7 44 24 04 01 00 00 	movl   $0x1,0x4(%esp)
  10076a:	00 
  10076b:	c7 04 24 f9 03 00 00 	movl   $0x3f9,(%esp)
  100772:	e8 e9 48 00 00       	call   105060 <outb>
}

void
serial_intr(void)
{
	if (serial_exists)
  100777:	80 3d 28 06 98 00 00 	cmpb   $0x0,0x980628
  10077e:	74 0c                	je     10078c <serial_intenable+0x3c>
		cons_intr(serial_proc_data);
  100780:	c7 04 24 70 05 10 00 	movl   $0x100570,(%esp)
  100787:	e8 b4 fb ff ff       	call   100340 <cons_intr>
	if (serial_exists) {
		outb(COM1+COM_IER, 1);
		//intr_enable(IRQ_SERIAL13);
		serial_intr();
	}
}
  10078c:	83 c4 1c             	add    $0x1c,%esp
  10078f:	c3                   	ret    

00100790 <kbd_proc_data>:
 * Get data from the keyboard.  If we finish a character, return it.  Else 0.
 * Return -1 if no data.
 */
static int
kbd_proc_data(void)
{
  100790:	53                   	push   %ebx
  100791:	83 ec 18             	sub    $0x18,%esp
  int c;
  uint8_t data;
  static uint32_t shift;

  if ((inb(KBSTATP) & KBS_DIB) == 0)
  100794:	c7 04 24 64 00 00 00 	movl   $0x64,(%esp)
  10079b:	e8 90 48 00 00       	call   105030 <inb>
  1007a0:	a8 01                	test   $0x1,%al
  1007a2:	0f 84 f8 00 00 00    	je     1008a0 <kbd_proc_data+0x110>
    return -1;

  data = inb(KBDATAP);
  1007a8:	c7 04 24 60 00 00 00 	movl   $0x60,(%esp)
  1007af:	e8 7c 48 00 00       	call   105030 <inb>

  if (data == 0xE0) {
  1007b4:	3c e0                	cmp    $0xe0,%al
  static uint32_t shift;

  if ((inb(KBSTATP) & KBS_DIB) == 0)
    return -1;

  data = inb(KBDATAP);
  1007b6:	89 c2                	mov    %eax,%edx

  if (data == 0xE0) {
  1007b8:	0f 84 d2 00 00 00    	je     100890 <kbd_proc_data+0x100>
    // E0 escape character
    shift |= E0ESC;
    return 0;
  } else if (data & 0x80) {
  1007be:	84 c0                	test   %al,%al
    // Key released
    data = (shift & E0ESC ? data : data & 0x7F);
  1007c0:	8b 0d 00 f4 13 00    	mov    0x13f400,%ecx

  if (data == 0xE0) {
    // E0 escape character
    shift |= E0ESC;
    return 0;
  } else if (data & 0x80) {
  1007c6:	0f 88 94 00 00 00    	js     100860 <kbd_proc_data+0xd0>
    // Key released
    data = (shift & E0ESC ? data : data & 0x7F);
    shift &= ~(shiftcode[data] | E0ESC);
    return 0;
  } else if (shift & E0ESC) {
  1007cc:	f6 c1 40             	test   $0x40,%cl
  1007cf:	74 08                	je     1007d9 <kbd_proc_data+0x49>
    // Last character was an E0 escape; or with 0x80
    data |= 0x80;
  1007d1:	89 c2                	mov    %eax,%edx
    shift &= ~E0ESC;
  1007d3:	83 e1 bf             	and    $0xffffffbf,%ecx
    data = (shift & E0ESC ? data : data & 0x7F);
    shift &= ~(shiftcode[data] | E0ESC);
    return 0;
  } else if (shift & E0ESC) {
    // Last character was an E0 escape; or with 0x80
    data |= 0x80;
  1007d6:	83 ca 80             	or     $0xffffff80,%edx
    shift &= ~E0ESC;
  }

  shift |= shiftcode[data];
  1007d9:	0f b6 c2             	movzbl %dl,%eax
  1007dc:	0f b6 90 c0 ac 10 00 	movzbl 0x10acc0(%eax),%edx
  1007e3:	09 ca                	or     %ecx,%edx
  shift ^= togglecode[data];
  1007e5:	0f b6 88 c0 ab 10 00 	movzbl 0x10abc0(%eax),%ecx
  1007ec:	31 ca                	xor    %ecx,%edx

  c = charcode[shift & (CTL | SHIFT)][data];
  1007ee:	89 d1                	mov    %edx,%ecx
  1007f0:	83 e1 03             	and    $0x3,%ecx
  if (shift & CAPSLOCK) {
  1007f3:	f6 c2 08             	test   $0x8,%dl
  }

  shift |= shiftcode[data];
  shift ^= togglecode[data];

  c = charcode[shift & (CTL | SHIFT)][data];
  1007f6:	8b 0c 8d a0 ab 10 00 	mov    0x10aba0(,%ecx,4),%ecx
    data |= 0x80;
    shift &= ~E0ESC;
  }

  shift |= shiftcode[data];
  shift ^= togglecode[data];
  1007fd:	89 15 00 f4 13 00    	mov    %edx,0x13f400

  c = charcode[shift & (CTL | SHIFT)][data];
  100803:	0f b6 1c 01          	movzbl (%ecx,%eax,1),%ebx
  if (shift & CAPSLOCK) {
  100807:	74 23                	je     10082c <kbd_proc_data+0x9c>
    if ('a' <= c && c <= 'z')
  100809:	8d 43 9f             	lea    -0x61(%ebx),%eax
  10080c:	83 f8 19             	cmp    $0x19,%eax
  10080f:	77 0f                	ja     100820 <kbd_proc_data+0x90>
      c += 'A' - 'a';
  100811:	83 eb 20             	sub    $0x20,%ebx
  100814:	8d 74 26 00          	lea    0x0(%esi,%eiz,1),%esi
    dprintf("Rebooting!\n");
    outb(0x92, 0x3); // courtesy of Chris Frost
  }

  return c;
}
  100818:	83 c4 18             	add    $0x18,%esp
  10081b:	89 d8                	mov    %ebx,%eax
  10081d:	5b                   	pop    %ebx
  10081e:	c3                   	ret    
  10081f:	90                   	nop

  c = charcode[shift & (CTL | SHIFT)][data];
  if (shift & CAPSLOCK) {
    if ('a' <= c && c <= 'z')
      c += 'A' - 'a';
    else if ('A' <= c && c <= 'Z')
  100820:	8d 4b bf             	lea    -0x41(%ebx),%ecx
      c += 'a' - 'A';
  100823:	8d 43 20             	lea    0x20(%ebx),%eax
  100826:	83 f9 19             	cmp    $0x19,%ecx
  100829:	0f 46 d8             	cmovbe %eax,%ebx
  }

  // Process special keys
  // Ctrl-Alt-Del: reboot
  if (!(~shift & (CTL | ALT)) && c == KEY_DEL) {
  10082c:	f7 d2                	not    %edx
  10082e:	83 e2 06             	and    $0x6,%edx
  100831:	75 e5                	jne    100818 <kbd_proc_data+0x88>
  100833:	81 fb e9 00 00 00    	cmp    $0xe9,%ebx
  100839:	75 dd                	jne    100818 <kbd_proc_data+0x88>
    dprintf("Rebooting!\n");
  10083b:	c7 04 24 81 ab 10 00 	movl   $0x10ab81,(%esp)
  100842:	e8 59 3b 00 00       	call   1043a0 <dprintf>
    outb(0x92, 0x3); // courtesy of Chris Frost
  100847:	c7 44 24 04 03 00 00 	movl   $0x3,0x4(%esp)
  10084e:	00 
  10084f:	c7 04 24 92 00 00 00 	movl   $0x92,(%esp)
  100856:	e8 05 48 00 00       	call   105060 <outb>
  10085b:	eb bb                	jmp    100818 <kbd_proc_data+0x88>
  10085d:	8d 76 00             	lea    0x0(%esi),%esi
    // E0 escape character
    shift |= E0ESC;
    return 0;
  } else if (data & 0x80) {
    // Key released
    data = (shift & E0ESC ? data : data & 0x7F);
  100860:	83 e0 7f             	and    $0x7f,%eax
  100863:	f6 c1 40             	test   $0x40,%cl
  100866:	0f 44 d0             	cmove  %eax,%edx
    shift &= ~(shiftcode[data] | E0ESC);
    return 0;
  100869:	31 db                	xor    %ebx,%ebx
    shift |= E0ESC;
    return 0;
  } else if (data & 0x80) {
    // Key released
    data = (shift & E0ESC ? data : data & 0x7F);
    shift &= ~(shiftcode[data] | E0ESC);
  10086b:	0f b6 d2             	movzbl %dl,%edx
  10086e:	0f b6 82 c0 ac 10 00 	movzbl 0x10acc0(%edx),%eax
  100875:	83 c8 40             	or     $0x40,%eax
  100878:	0f b6 c0             	movzbl %al,%eax
  10087b:	f7 d0                	not    %eax
  10087d:	21 c8                	and    %ecx,%eax
  10087f:	a3 00 f4 13 00       	mov    %eax,0x13f400
    dprintf("Rebooting!\n");
    outb(0x92, 0x3); // courtesy of Chris Frost
  }

  return c;
}
  100884:	83 c4 18             	add    $0x18,%esp
  100887:	89 d8                	mov    %ebx,%eax
  100889:	5b                   	pop    %ebx
  10088a:	c3                   	ret    
  10088b:	90                   	nop
  10088c:	8d 74 26 00          	lea    0x0(%esi,%eiz,1),%esi
  data = inb(KBDATAP);

  if (data == 0xE0) {
    // E0 escape character
    shift |= E0ESC;
    return 0;
  100890:	31 db                	xor    %ebx,%ebx

  data = inb(KBDATAP);

  if (data == 0xE0) {
    // E0 escape character
    shift |= E0ESC;
  100892:	83 0d 00 f4 13 00 40 	orl    $0x40,0x13f400
    dprintf("Rebooting!\n");
    outb(0x92, 0x3); // courtesy of Chris Frost
  }

  return c;
}
  100899:	83 c4 18             	add    $0x18,%esp
  10089c:	89 d8                	mov    %ebx,%eax
  10089e:	5b                   	pop    %ebx
  10089f:	c3                   	ret    
  int c;
  uint8_t data;
  static uint32_t shift;

  if ((inb(KBSTATP) & KBS_DIB) == 0)
    return -1;
  1008a0:	bb ff ff ff ff       	mov    $0xffffffff,%ebx
  1008a5:	e9 6e ff ff ff       	jmp    100818 <kbd_proc_data+0x88>
  1008aa:	8d b6 00 00 00 00    	lea    0x0(%esi),%esi

001008b0 <keyboard_intr>:
  return c;
}

void
keyboard_intr(void)
{
  1008b0:	83 ec 1c             	sub    $0x1c,%esp
  cons_intr(kbd_proc_data);
  1008b3:	c7 04 24 90 07 10 00 	movl   $0x100790,(%esp)
  1008ba:	e8 81 fa ff ff       	call   100340 <cons_intr>
}
  1008bf:	83 c4 1c             	add    $0x1c,%esp
  1008c2:	c3                   	ret    
  1008c3:	66 90                	xchg   %ax,%ax
  1008c5:	66 90                	xchg   %ax,%ax
  1008c7:	66 90                	xchg   %ax,%ax
  1008c9:	66 90                	xchg   %ax,%ax
  1008cb:	66 90                	xchg   %ax,%ax
  1008cd:	66 90                	xchg   %ax,%ax
  1008cf:	90                   	nop

001008d0 <devinit>:
void file_init(void);


void
devinit (uintptr_t mbi_addr)
{
  1008d0:	53                   	push   %ebx
  1008d1:	83 ec 18             	sub    $0x18,%esp
  1008d4:	8b 5c 24 20          	mov    0x20(%esp),%ebx
	seg_init (0);
  1008d8:	c7 04 24 00 00 00 00 	movl   $0x0,(%esp)
  1008df:	e8 bc 40 00 00       	call   1049a0 <seg_init>

	enable_sse ();
  1008e4:	e8 87 45 00 00       	call   104e70 <enable_sse>

	cons_init ();
  1008e9:	e8 12 fa ff ff       	call   100300 <cons_init>
  1008ee:	66 90                	xchg   %ax,%ax

	debug_init();
  1008f0:	e8 5b 37 00 00       	call   104050 <debug_init>
	KERN_INFO("[BSP KERN] cons initialized.\n");
  1008f5:	c7 04 24 c0 ad 10 00 	movl   $0x10adc0,(%esp)
  1008fc:	e8 ef 37 00 00       	call   1040f0 <debug_info>
	KERN_INFO("[BSP KERN] devinit mbi_adr: %d\n", mbi_addr);
  100901:	89 5c 24 04          	mov    %ebx,0x4(%esp)
  100905:	c7 04 24 90 ae 10 00 	movl   $0x10ae90,(%esp)
  10090c:	e8 df 37 00 00       	call   1040f0 <debug_info>

	/* pcpu init codes */
	pcpu_init();
  100911:	e8 0a 54 00 00       	call   105d20 <pcpu_init>
	KERN_INFO("[BSP KERN] PCPU initialized\n");
  100916:	c7 04 24 de ad 10 00 	movl   $0x10adde,(%esp)
  10091d:	e8 ce 37 00 00       	call   1040f0 <debug_info>

	tsc_init();
  100922:	e8 39 12 00 00       	call   101b60 <tsc_init>
	KERN_INFO("[BSP KERN] TSC initialized\n");
  100927:	c7 04 24 fb ad 10 00 	movl   $0x10adfb,(%esp)
  10092e:	e8 bd 37 00 00       	call   1040f0 <debug_info>

	intr_init();
  100933:	e8 a8 05 00 00       	call   100ee0 <intr_init>
	KERN_INFO("[BSP KERN] INTR initialized\n");
  100938:	c7 04 24 17 ae 10 00 	movl   $0x10ae17,(%esp)
  10093f:	e8 ac 37 00 00       	call   1040f0 <debug_info>
	
	trap_init(0);
  100944:	c7 04 24 00 00 00 00 	movl   $0x0,(%esp)
  10094b:	e8 70 76 00 00       	call   107fc0 <trap_init>

	pmmap_init (mbi_addr);
  100950:	89 1c 24             	mov    %ebx,(%esp)
  100953:	e8 38 01 00 00       	call   100a90 <pmmap_init>

	bufcache_init();      // buffer cache
  100958:	e8 e3 7a 00 00       	call   108440 <bufcache_init>
	file_init();          // file table
  10095d:	e8 1e 90 00 00       	call   109980 <file_init>
	inode_init();         // inode cache
  100962:	e8 b9 83 00 00       	call   108d20 <inode_init>
	ide_init ();
  100967:	e8 64 31 00 00       	call   103ad0 <ide_init>
	KERN_INFO("[BSP KERN] IDE disk driver initialized\n");
  10096c:	c7 44 24 20 b0 ae 10 	movl   $0x10aeb0,0x20(%esp)
  100973:	00 
}
  100974:	83 c4 18             	add    $0x18,%esp
  100977:	5b                   	pop    %ebx

	bufcache_init();      // buffer cache
	file_init();          // file table
	inode_init();         // inode cache
	ide_init ();
	KERN_INFO("[BSP KERN] IDE disk driver initialized\n");
  100978:	e9 73 37 00 00       	jmp    1040f0 <debug_info>
  10097d:	8d 76 00             	lea    0x0(%esi),%esi

00100980 <devinit_ap>:
}

void 
devinit_ap (void)
{
  100980:	53                   	push   %ebx
  100981:	83 ec 18             	sub    $0x18,%esp
	/* Figure out the current (booting) kernel stack) */
  	struct kstack *ks =
                (struct kstack *) ROUNDDOWN(get_stack_pointer(), KSTACK_SIZE);
  100984:	e8 37 44 00 00       	call   104dc0 <get_stack_pointer>

	KERN_ASSERT(ks != NULL);
  100989:	25 00 f0 ff ff       	and    $0xfffff000,%eax
  10098e:	89 c3                	mov    %eax,%ebx
  100990:	0f 84 92 00 00 00    	je     100a28 <devinit_ap+0xa8>
	KERN_ASSERT(1 <= ks->cpu_idx && ks->cpu_idx < 8);
  100996:	8b 83 1c 01 00 00    	mov    0x11c(%ebx),%eax
  10099c:	8d 50 ff             	lea    -0x1(%eax),%edx
  10099f:	83 fa 06             	cmp    $0x6,%edx
  1009a2:	76 2a                	jbe    1009ce <devinit_ap+0x4e>
  1009a4:	c7 44 24 0c d8 ae 10 	movl   $0x10aed8,0xc(%esp)
  1009ab:	00 
  1009ac:	c7 44 24 08 3f ae 10 	movl   $0x10ae3f,0x8(%esp)
  1009b3:	00 
  1009b4:	c7 44 24 04 43 00 00 	movl   $0x43,0x4(%esp)
  1009bb:	00 
  1009bc:	c7 04 24 5c ae 10 00 	movl   $0x10ae5c,(%esp)
  1009c3:	e8 b8 37 00 00       	call   104180 <debug_panic>
  1009c8:	8b 83 1c 01 00 00    	mov    0x11c(%ebx),%eax

  	/* kernel stack for this cpu initialized */
  	seg_init(ks->cpu_idx);
  1009ce:	89 04 24             	mov    %eax,(%esp)
  1009d1:	e8 ca 3f 00 00       	call   1049a0 <seg_init>

  	pcpu_init();
  1009d6:	e8 45 53 00 00       	call   105d20 <pcpu_init>
  	KERN_INFO("[AP%d KERN] PCPU initialized\n", ks->cpu_idx);
  1009db:	8b 83 1c 01 00 00    	mov    0x11c(%ebx),%eax
  1009e1:	c7 04 24 6f ae 10 00 	movl   $0x10ae6f,(%esp)
  1009e8:	89 44 24 04          	mov    %eax,0x4(%esp)
  1009ec:	e8 ff 36 00 00       	call   1040f0 <debug_info>
	
	intr_init();
  1009f1:	e8 ea 04 00 00       	call   100ee0 <intr_init>
  	KERN_INFO("[AP%d KERN] INTR initialized.\n", ks->cpu_idx);
  1009f6:	8b 83 1c 01 00 00    	mov    0x11c(%ebx),%eax
  1009fc:	c7 04 24 fc ae 10 00 	movl   $0x10aefc,(%esp)
  100a03:	89 44 24 04          	mov    %eax,0x4(%esp)
  100a07:	e8 e4 36 00 00       	call   1040f0 <debug_info>

	trap_init(ks->cpu_idx);
  100a0c:	8b 83 1c 01 00 00    	mov    0x11c(%ebx),%eax
  100a12:	89 04 24             	mov    %eax,(%esp)
  100a15:	e8 a6 75 00 00       	call   107fc0 <trap_init>

	paging_init_ap();
}
  100a1a:	83 c4 18             	add    $0x18,%esp
  100a1d:	5b                   	pop    %ebx
	intr_init();
  	KERN_INFO("[AP%d KERN] INTR initialized.\n", ks->cpu_idx);

	trap_init(ks->cpu_idx);

	paging_init_ap();
  100a1e:	e9 1d 5f 00 00       	jmp    106940 <paging_init_ap>
  100a23:	90                   	nop
  100a24:	8d 74 26 00          	lea    0x0(%esi,%eiz,1),%esi
{
	/* Figure out the current (booting) kernel stack) */
  	struct kstack *ks =
                (struct kstack *) ROUNDDOWN(get_stack_pointer(), KSTACK_SIZE);

	KERN_ASSERT(ks != NULL);
  100a28:	c7 44 24 0c 34 ae 10 	movl   $0x10ae34,0xc(%esp)
  100a2f:	00 
  100a30:	c7 44 24 08 3f ae 10 	movl   $0x10ae3f,0x8(%esp)
  100a37:	00 
  100a38:	c7 44 24 04 42 00 00 	movl   $0x42,0x4(%esp)
  100a3f:	00 
  100a40:	c7 04 24 5c ae 10 00 	movl   $0x10ae5c,(%esp)
  100a47:	e8 34 37 00 00       	call   104180 <debug_panic>
  100a4c:	e9 45 ff ff ff       	jmp    100996 <devinit_ap+0x16>
  100a51:	66 90                	xchg   %ax,%ax
  100a53:	66 90                	xchg   %ax,%ax
  100a55:	66 90                	xchg   %ax,%ax
  100a57:	66 90                	xchg   %ax,%ax
  100a59:	66 90                	xchg   %ax,%ax
  100a5b:	66 90                	xchg   %ax,%ax
  100a5d:	66 90                	xchg   %ax,%ax
  100a5f:	90                   	nop

00100a60 <pmmap_alloc_slot>:
static int pmmap_nentries = 0;

struct pmmap *
pmmap_alloc_slot(void)
{
	if (unlikely(pmmap_slots_next_free == 128))
  100a60:	a1 40 f4 13 00       	mov    0x13f440,%eax
  100a65:	3d 80 00 00 00       	cmp    $0x80,%eax
  100a6a:	74 14                	je     100a80 <pmmap_alloc_slot+0x20>
		return NULL;
	return &pmmap_slots[pmmap_slots_next_free++];
  100a6c:	8d 50 01             	lea    0x1(%eax),%edx
  100a6f:	8d 04 80             	lea    (%eax,%eax,4),%eax
  100a72:	89 15 40 f4 13 00    	mov    %edx,0x13f440
  100a78:	8d 04 85 60 f4 13 00 	lea    0x13f460(,%eax,4),%eax
  100a7f:	c3                   	ret    

struct pmmap *
pmmap_alloc_slot(void)
{
	if (unlikely(pmmap_slots_next_free == 128))
		return NULL;
  100a80:	31 c0                	xor    %eax,%eax
	return &pmmap_slots[pmmap_slots_next_free++];
}
  100a82:	c3                   	ret    
  100a83:	8d b6 00 00 00 00    	lea    0x0(%esi),%esi
  100a89:	8d bc 27 00 00 00 00 	lea    0x0(%edi,%eiz,1),%edi

00100a90 <pmmap_init>:
	}
}

void
pmmap_init(uintptr_t mbi_addr)
{
  100a90:	55                   	push   %ebp
  100a91:	57                   	push   %edi
  100a92:	56                   	push   %esi
  100a93:	53                   	push   %ebx
  100a94:	83 ec 3c             	sub    $0x3c,%esp
  100a97:	8b 7c 24 50          	mov    0x50(%esp),%edi
	KERN_INFO("\n");
  100a9b:	c7 04 24 04 c3 10 00 	movl   $0x10c304,(%esp)
  100aa2:	e8 49 36 00 00       	call   1040f0 <debug_info>

	mboot_info_t *mbi = (mboot_info_t *) mbi_addr;
	mboot_mmap_t *p = (mboot_mmap_t *) mbi->mmap_addr;

	SLIST_INIT(&pmmap_list);
  100aa7:	c7 05 3c f4 13 00 00 	movl   $0x0,0x13f43c
  100aae:	00 00 00 
	SLIST_INIT(&pmmap_sublist[PMMAP_NVS]);

	/*
	 * Copy memory map information from multiboot information mbi to pmmap.
	 */
	while ((uintptr_t) p - (uintptr_t) mbi->mmap_addr < mbi->mmap_length) {
  100ab1:	8b 5f 2c             	mov    0x2c(%edi),%ebx
pmmap_init(uintptr_t mbi_addr)
{
	KERN_INFO("\n");

	mboot_info_t *mbi = (mboot_info_t *) mbi_addr;
	mboot_mmap_t *p = (mboot_mmap_t *) mbi->mmap_addr;
  100ab4:	8b 47 30             	mov    0x30(%edi),%eax

	SLIST_INIT(&pmmap_list);
	SLIST_INIT(&pmmap_sublist[PMMAP_USABLE]);
  100ab7:	c7 05 2c f4 13 00 00 	movl   $0x0,0x13f42c
  100abe:	00 00 00 
	SLIST_INIT(&pmmap_sublist[PMMAP_RESV]);
  100ac1:	c7 05 30 f4 13 00 00 	movl   $0x0,0x13f430
  100ac8:	00 00 00 
	SLIST_INIT(&pmmap_sublist[PMMAP_NVS]);

	/*
	 * Copy memory map information from multiboot information mbi to pmmap.
	 */
	while ((uintptr_t) p - (uintptr_t) mbi->mmap_addr < mbi->mmap_length) {
  100acb:	85 db                	test   %ebx,%ebx
	mboot_mmap_t *p = (mboot_mmap_t *) mbi->mmap_addr;

	SLIST_INIT(&pmmap_list);
	SLIST_INIT(&pmmap_sublist[PMMAP_USABLE]);
	SLIST_INIT(&pmmap_sublist[PMMAP_RESV]);
	SLIST_INIT(&pmmap_sublist[PMMAP_ACPI]);
  100acd:	c7 05 34 f4 13 00 00 	movl   $0x0,0x13f434
  100ad4:	00 00 00 
	SLIST_INIT(&pmmap_sublist[PMMAP_NVS]);
  100ad7:	c7 05 38 f4 13 00 00 	movl   $0x0,0x13f438
  100ade:	00 00 00 

	/*
	 * Copy memory map information from multiboot information mbi to pmmap.
	 */
	while ((uintptr_t) p - (uintptr_t) mbi->mmap_addr < mbi->mmap_length) {
  100ae1:	0f 84 11 01 00 00    	je     100bf8 <pmmap_init+0x168>
  100ae7:	8d 70 18             	lea    0x18(%eax),%esi
  100aea:	8d b6 00 00 00 00    	lea    0x0(%esi),%esi
		uintptr_t start,end;
		uint32_t type;

		if (p->base_addr_high != 0)	/* ignore address above 4G */
  100af0:	8b 48 08             	mov    0x8(%eax),%ecx
  100af3:	85 c9                	test   %ecx,%ecx
  100af5:	75 7c                	jne    100b73 <pmmap_init+0xe3>
			goto next;
		else
			start = p->base_addr_low;

		if (p->length_high != 0 ||
  100af7:	8b 50 10             	mov    0x10(%eax),%edx
		    p->length_low >= 0xffffffff - start)
			end = 0xffffffff;
  100afa:	bd ff ff ff ff       	mov    $0xffffffff,%ebp
		uint32_t type;

		if (p->base_addr_high != 0)	/* ignore address above 4G */
			goto next;
		else
			start = p->base_addr_low;
  100aff:	8b 58 04             	mov    0x4(%eax),%ebx

		if (p->length_high != 0 ||
  100b02:	85 d2                	test   %edx,%edx
  100b04:	75 0f                	jne    100b15 <pmmap_init+0x85>
		    p->length_low >= 0xffffffff - start)
			end = 0xffffffff;
		else
			end = start + p->length_low;
  100b06:	8b 50 0c             	mov    0xc(%eax),%edx
  100b09:	89 d9                	mov    %ebx,%ecx
  100b0b:	f7 d1                	not    %ecx
  100b0d:	01 da                	add    %ebx,%edx
  100b0f:	39 48 0c             	cmp    %ecx,0xc(%eax)
  100b12:	0f 42 ea             	cmovb  %edx,%ebp

		type = p->type;
  100b15:	8b 50 14             	mov    0x14(%eax),%edx
static int pmmap_nentries = 0;

struct pmmap *
pmmap_alloc_slot(void)
{
	if (unlikely(pmmap_slots_next_free == 128))
  100b18:	a1 40 f4 13 00       	mov    0x13f440,%eax
  100b1d:	3d 80 00 00 00       	cmp    $0x80,%eax
  100b22:	0f 84 67 02 00 00    	je     100d8f <pmmap_init+0x2ff>
		return NULL;
	return &pmmap_slots[pmmap_slots_next_free++];
  100b28:	8d 48 01             	lea    0x1(%eax),%ecx
  100b2b:	8d 04 80             	lea    (%eax,%eax,4),%eax
  100b2e:	89 0d 40 f4 13 00    	mov    %ecx,0x13f440
  100b34:	8d 0c 85 60 f4 13 00 	lea    0x13f460(,%eax,4),%ecx
	if ((free_slot = pmmap_alloc_slot()) == NULL)
		KERN_PANIC("More than 128 E820 entries.\n");

	free_slot->start = start;
	free_slot->end = end;
	free_slot->type = type;
  100b3b:	89 51 08             	mov    %edx,0x8(%ecx)

	last_slot = NULL;

	SLIST_FOREACH(slot, &pmmap_list, next) {
  100b3e:	8b 15 3c f4 13 00    	mov    0x13f43c,%edx
	struct pmmap *free_slot, *slot, *last_slot;

	if ((free_slot = pmmap_alloc_slot()) == NULL)
		KERN_PANIC("More than 128 E820 entries.\n");

	free_slot->start = start;
  100b44:	89 19                	mov    %ebx,(%ecx)
	free_slot->end = end;
  100b46:	89 69 04             	mov    %ebp,0x4(%ecx)
	free_slot->type = type;

	last_slot = NULL;

	SLIST_FOREACH(slot, &pmmap_list, next) {
  100b49:	85 d2                	test   %edx,%edx
  100b4b:	0f 84 0e 02 00 00    	je     100d5f <pmmap_init+0x2cf>
		if (start < slot->start)
  100b51:	3b 1a                	cmp    (%edx),%ebx
  100b53:	73 11                	jae    100b66 <pmmap_init+0xd6>
  100b55:	e9 05 02 00 00       	jmp    100d5f <pmmap_init+0x2cf>
  100b5a:	8d b6 00 00 00 00    	lea    0x0(%esi),%esi
  100b60:	3b 18                	cmp    (%eax),%ebx
  100b62:	72 09                	jb     100b6d <pmmap_init+0xdd>
  100b64:	89 c2                	mov    %eax,%edx
	free_slot->end = end;
	free_slot->type = type;

	last_slot = NULL;

	SLIST_FOREACH(slot, &pmmap_list, next) {
  100b66:	8b 42 0c             	mov    0xc(%edx),%eax
  100b69:	85 c0                	test   %eax,%eax
  100b6b:	75 f3                	jne    100b60 <pmmap_init+0xd0>
  {
		SLIST_INSERT_HEAD(&pmmap_list, free_slot, next);
  }
	else
  {
		SLIST_INSERT_AFTER(last_slot, free_slot, next);
  100b6d:	89 41 0c             	mov    %eax,0xc(%ecx)
  100b70:	89 4a 0c             	mov    %ecx,0xc(%edx)
	SLIST_INIT(&pmmap_sublist[PMMAP_NVS]);

	/*
	 * Copy memory map information from multiboot information mbi to pmmap.
	 */
	while ((uintptr_t) p - (uintptr_t) mbi->mmap_addr < mbi->mmap_length) {
  100b73:	89 f2                	mov    %esi,%edx

		pmmap_insert(start, end, type);
    //pmmap_dump();

	next:
		p = (mboot_mmap_t *) (((uint32_t) p) + sizeof(mboot_mmap_t)/* p->size */);
  100b75:	89 f0                	mov    %esi,%eax
	SLIST_INIT(&pmmap_sublist[PMMAP_NVS]);

	/*
	 * Copy memory map information from multiboot information mbi to pmmap.
	 */
	while ((uintptr_t) p - (uintptr_t) mbi->mmap_addr < mbi->mmap_length) {
  100b77:	2b 57 30             	sub    0x30(%edi),%edx
  100b7a:	83 c6 18             	add    $0x18,%esi
  100b7d:	3b 57 2c             	cmp    0x2c(%edi),%edx
  100b80:	0f 82 6a ff ff ff    	jb     100af0 <pmmap_init+0x60>
  100b86:	8b 1d 3c f4 13 00    	mov    0x13f43c,%ebx

static void
pmmap_merge(void)
{
	struct pmmap *slot, *next_slot;
	struct pmmap *last_slot[4] = { NULL, NULL, NULL, NULL };
  100b8c:	c7 44 24 20 00 00 00 	movl   $0x0,0x20(%esp)
  100b93:	00 
  100b94:	c7 44 24 24 00 00 00 	movl   $0x0,0x24(%esp)
  100b9b:	00 
  100b9c:	c7 44 24 28 00 00 00 	movl   $0x0,0x28(%esp)
  100ba3:	00 
	int sublist_nr;

	/*
	 * Step 1: Merge overlaped entries in pmmap_list.
	 */
	SLIST_FOREACH(slot, &pmmap_list, next) {
  100ba4:	85 db                	test   %ebx,%ebx

static void
pmmap_merge(void)
{
	struct pmmap *slot, *next_slot;
	struct pmmap *last_slot[4] = { NULL, NULL, NULL, NULL };
  100ba6:	c7 44 24 2c 00 00 00 	movl   $0x0,0x2c(%esp)
  100bad:	00 
	int sublist_nr;

	/*
	 * Step 1: Merge overlaped entries in pmmap_list.
	 */
	SLIST_FOREACH(slot, &pmmap_list, next) {
  100bae:	74 48                	je     100bf8 <pmmap_init+0x168>
		if ((next_slot = SLIST_NEXT(slot, next)) == NULL)
  100bb0:	8b 43 0c             	mov    0xc(%ebx),%eax
  100bb3:	85 c0                	test   %eax,%eax
  100bb5:	75 10                	jne    100bc7 <pmmap_init+0x137>
  100bb7:	eb 7b                	jmp    100c34 <pmmap_init+0x1a4>
  100bb9:	8d b4 26 00 00 00 00 	lea    0x0(%esi,%eiz,1),%esi
  100bc0:	8b 43 0c             	mov    0xc(%ebx),%eax
  100bc3:	85 c0                	test   %eax,%eax
  100bc5:	74 20                	je     100be7 <pmmap_init+0x157>
			break;
		if (slot->start <= next_slot->start &&
  100bc7:	8b 10                	mov    (%eax),%edx
  100bc9:	39 13                	cmp    %edx,(%ebx)
  100bcb:	77 13                	ja     100be0 <pmmap_init+0x150>
		    slot->end >= next_slot->start &&
  100bcd:	8b 4b 04             	mov    0x4(%ebx),%ecx
	 * Step 1: Merge overlaped entries in pmmap_list.
	 */
	SLIST_FOREACH(slot, &pmmap_list, next) {
		if ((next_slot = SLIST_NEXT(slot, next)) == NULL)
			break;
		if (slot->start <= next_slot->start &&
  100bd0:	39 ca                	cmp    %ecx,%edx
  100bd2:	77 0c                	ja     100be0 <pmmap_init+0x150>
		    slot->end >= next_slot->start &&
  100bd4:	8b 70 08             	mov    0x8(%eax),%esi
  100bd7:	39 73 08             	cmp    %esi,0x8(%ebx)
  100bda:	0f 84 8d 01 00 00    	je     100d6d <pmmap_init+0x2dd>
  100be0:	8b 5b 0c             	mov    0xc(%ebx),%ebx
	int sublist_nr;

	/*
	 * Step 1: Merge overlaped entries in pmmap_list.
	 */
	SLIST_FOREACH(slot, &pmmap_list, next) {
  100be3:	85 db                	test   %ebx,%ebx
  100be5:	75 d9                	jne    100bc0 <pmmap_init+0x130>

	/*
	 * Step 2: Create the specfic lists: pmmap_usable, pmmap_resv,
	 *         pmmap_acpi, pmmap_nvs.
	 */
	SLIST_FOREACH(slot, &pmmap_list, next) {
  100be7:	8b 1d 3c f4 13 00    	mov    0x13f43c,%ebx
  100bed:	85 db                	test   %ebx,%ebx
  100bef:	75 43                	jne    100c34 <pmmap_init+0x1a4>
  100bf1:	8d b4 26 00 00 00 00 	lea    0x0(%esi,%eiz,1),%esi
	SLIST_FOREACH(slot, &pmmap_list, next) {
		pmmap_nentries++;
	}

	/* Calculate the maximum page number */
	mem_npages = rounddown(max_usable_memory, PAGESIZE) / PAGESIZE;
  100bf8:	a1 28 f4 13 00       	mov    0x13f428,%eax
  100bfd:	c7 44 24 04 00 10 00 	movl   $0x1000,0x4(%esp)
  100c04:	00 
  100c05:	89 04 24             	mov    %eax,(%esp)
  100c08:	e8 63 41 00 00       	call   104d70 <rounddown>
  100c0d:	c1 e8 0c             	shr    $0xc,%eax
  100c10:	a3 24 f4 13 00       	mov    %eax,0x13f424
}
  100c15:	83 c4 3c             	add    $0x3c,%esp
  100c18:	5b                   	pop    %ebx
  100c19:	5e                   	pop    %esi
  100c1a:	5f                   	pop    %edi
  100c1b:	5d                   	pop    %ebp
  100c1c:	c3                   	ret    
  100c1d:	8d 76 00             	lea    0x0(%esi),%esi
	 */
	SLIST_FOREACH(slot, &pmmap_list, next) {
		sublist_nr = PMMAP_SUBLIST_NR(slot->type);
    KERN_ASSERT(sublist_nr != -1);
		if (last_slot[sublist_nr] != NULL)
			SLIST_INSERT_AFTER(last_slot[sublist_nr], slot,
  100c20:	8b 4a 10             	mov    0x10(%edx),%ecx
					   type_next);
		else
			SLIST_INSERT_HEAD(&pmmap_sublist[sublist_nr], slot,
					  type_next);
		last_slot[sublist_nr] = slot;
  100c23:	89 5c 84 20          	mov    %ebx,0x20(%esp,%eax,4)
	 */
	SLIST_FOREACH(slot, &pmmap_list, next) {
		sublist_nr = PMMAP_SUBLIST_NR(slot->type);
    KERN_ASSERT(sublist_nr != -1);
		if (last_slot[sublist_nr] != NULL)
			SLIST_INSERT_AFTER(last_slot[sublist_nr], slot,
  100c27:	89 4b 10             	mov    %ecx,0x10(%ebx)
  100c2a:	89 5a 10             	mov    %ebx,0x10(%edx)

	/*
	 * Step 2: Create the specfic lists: pmmap_usable, pmmap_resv,
	 *         pmmap_acpi, pmmap_nvs.
	 */
	SLIST_FOREACH(slot, &pmmap_list, next) {
  100c2d:	8b 5b 0c             	mov    0xc(%ebx),%ebx
  100c30:	85 db                	test   %ebx,%ebx
  100c32:	74 6c                	je     100ca0 <pmmap_init+0x210>
		sublist_nr = PMMAP_SUBLIST_NR(slot->type);
  100c34:	8b 53 08             	mov    0x8(%ebx),%edx
  100c37:	31 c0                	xor    %eax,%eax
  100c39:	83 fa 01             	cmp    $0x1,%edx
  100c3c:	74 3e                	je     100c7c <pmmap_init+0x1ec>
  100c3e:	83 fa 02             	cmp    $0x2,%edx
  100c41:	b0 01                	mov    $0x1,%al
  100c43:	74 37                	je     100c7c <pmmap_init+0x1ec>
  100c45:	83 fa 03             	cmp    $0x3,%edx
  100c48:	b0 02                	mov    $0x2,%al
  100c4a:	74 30                	je     100c7c <pmmap_init+0x1ec>
  100c4c:	83 fa 04             	cmp    $0x4,%edx
  100c4f:	b0 03                	mov    $0x3,%al
  100c51:	74 29                	je     100c7c <pmmap_init+0x1ec>
    KERN_ASSERT(sublist_nr != -1);
  100c53:	c7 44 24 0c 74 af 10 	movl   $0x10af74,0xc(%esp)
  100c5a:	00 
  100c5b:	c7 44 24 08 3f ae 10 	movl   $0x10ae3f,0x8(%esp)
  100c62:	00 
  100c63:	c7 44 24 04 71 00 00 	movl   $0x71,0x4(%esp)
  100c6a:	00 
  100c6b:	c7 04 24 63 af 10 00 	movl   $0x10af63,(%esp)
  100c72:	e8 09 35 00 00       	call   104180 <debug_panic>
	/*
	 * Step 2: Create the specfic lists: pmmap_usable, pmmap_resv,
	 *         pmmap_acpi, pmmap_nvs.
	 */
	SLIST_FOREACH(slot, &pmmap_list, next) {
		sublist_nr = PMMAP_SUBLIST_NR(slot->type);
  100c77:	b8 ff ff ff ff       	mov    $0xffffffff,%eax
    KERN_ASSERT(sublist_nr != -1);
		if (last_slot[sublist_nr] != NULL)
  100c7c:	8b 54 84 20          	mov    0x20(%esp,%eax,4),%edx
  100c80:	85 d2                	test   %edx,%edx
  100c82:	75 9c                	jne    100c20 <pmmap_init+0x190>
			SLIST_INSERT_AFTER(last_slot[sublist_nr], slot,
					   type_next);
		else
			SLIST_INSERT_HEAD(&pmmap_sublist[sublist_nr], slot,
  100c84:	8b 14 85 2c f4 13 00 	mov    0x13f42c(,%eax,4),%edx
					  type_next);
		last_slot[sublist_nr] = slot;
  100c8b:	89 5c 84 20          	mov    %ebx,0x20(%esp,%eax,4)
    KERN_ASSERT(sublist_nr != -1);
		if (last_slot[sublist_nr] != NULL)
			SLIST_INSERT_AFTER(last_slot[sublist_nr], slot,
					   type_next);
		else
			SLIST_INSERT_HEAD(&pmmap_sublist[sublist_nr], slot,
  100c8f:	89 1c 85 2c f4 13 00 	mov    %ebx,0x13f42c(,%eax,4)
  100c96:	89 53 10             	mov    %edx,0x10(%ebx)

	/*
	 * Step 2: Create the specfic lists: pmmap_usable, pmmap_resv,
	 *         pmmap_acpi, pmmap_nvs.
	 */
	SLIST_FOREACH(slot, &pmmap_list, next) {
  100c99:	8b 5b 0c             	mov    0xc(%ebx),%ebx
  100c9c:	85 db                	test   %ebx,%ebx
  100c9e:	75 94                	jne    100c34 <pmmap_init+0x1a4>
  100ca0:	8b 44 24 20          	mov    0x20(%esp),%eax
  100ca4:	8b 1d 3c f4 13 00    	mov    0x13f43c,%ebx
			SLIST_INSERT_HEAD(&pmmap_sublist[sublist_nr], slot,
					  type_next);
		last_slot[sublist_nr] = slot;
	}

	if (last_slot[PMMAP_USABLE] != NULL)
  100caa:	85 c0                	test   %eax,%eax
  100cac:	74 08                	je     100cb6 <pmmap_init+0x226>
		max_usable_memory = last_slot[PMMAP_USABLE]->end;
  100cae:	8b 40 04             	mov    0x4(%eax),%eax
  100cb1:	a3 28 f4 13 00       	mov    %eax,0x13f428

static void
pmmap_dump(void)
{
	struct pmmap *slot;
	SLIST_FOREACH(slot, &pmmap_list, next) {
  100cb6:	85 db                	test   %ebx,%ebx
  100cb8:	0f 84 3a ff ff ff    	je     100bf8 <pmmap_init+0x168>
		KERN_INFO("BIOS-e820: 0x%08x - 0x%08x (%s)\n",
  100cbe:	be 22 af 10 00       	mov    $0x10af22,%esi
  100cc3:	90                   	nop
  100cc4:	8d 74 26 00          	lea    0x0(%esi,%eiz,1),%esi
  100cc8:	8b 43 08             	mov    0x8(%ebx),%eax
  100ccb:	bf 1b af 10 00       	mov    $0x10af1b,%edi
  100cd0:	83 f8 01             	cmp    $0x1,%eax
  100cd3:	74 1f                	je     100cf4 <pmmap_init+0x264>
  100cd5:	83 f8 02             	cmp    $0x2,%eax
  100cd8:	bf 2a af 10 00       	mov    $0x10af2a,%edi
  100cdd:	74 15                	je     100cf4 <pmmap_init+0x264>
  100cdf:	83 f8 03             	cmp    $0x3,%eax
  100ce2:	bf 33 af 10 00       	mov    $0x10af33,%edi
  100ce7:	74 0b                	je     100cf4 <pmmap_init+0x264>
  100ce9:	83 f8 04             	cmp    $0x4,%eax
  100cec:	bf 3d af 10 00       	mov    $0x10af3d,%edi
  100cf1:	0f 45 fe             	cmovne %esi,%edi
  100cf4:	8b 0b                	mov    (%ebx),%ecx
  100cf6:	8b 53 04             	mov    0x4(%ebx),%edx
  100cf9:	89 c8                	mov    %ecx,%eax
  100cfb:	39 d1                	cmp    %edx,%ecx
  100cfd:	74 0e                	je     100d0d <pmmap_init+0x27d>
  100cff:	b8 ff ff ff ff       	mov    $0xffffffff,%eax
  100d04:	83 fa ff             	cmp    $0xffffffff,%edx
  100d07:	8d 6a ff             	lea    -0x1(%edx),%ebp
  100d0a:	0f 45 c5             	cmovne %ebp,%eax
  100d0d:	89 7c 24 0c          	mov    %edi,0xc(%esp)
  100d11:	89 44 24 08          	mov    %eax,0x8(%esp)
  100d15:	89 4c 24 04          	mov    %ecx,0x4(%esp)
  100d19:	c7 04 24 88 af 10 00 	movl   $0x10af88,(%esp)
  100d20:	e8 cb 33 00 00       	call   1040f0 <debug_info>

static void
pmmap_dump(void)
{
	struct pmmap *slot;
	SLIST_FOREACH(slot, &pmmap_list, next) {
  100d25:	8b 5b 0c             	mov    0xc(%ebx),%ebx
  100d28:	85 db                	test   %ebx,%ebx
  100d2a:	75 9c                	jne    100cc8 <pmmap_init+0x238>
	pmmap_merge();
	pmmap_dump();

	/* count the number of pmmap entries */
	struct pmmap *slot;
	SLIST_FOREACH(slot, &pmmap_list, next) {
  100d2c:	a1 3c f4 13 00       	mov    0x13f43c,%eax
  100d31:	85 c0                	test   %eax,%eax
  100d33:	0f 84 bf fe ff ff    	je     100bf8 <pmmap_init+0x168>
  100d39:	8b 35 20 f4 13 00    	mov    0x13f420,%esi
  100d3f:	8d 56 01             	lea    0x1(%esi),%edx
  100d42:	8d b6 00 00 00 00    	lea    0x0(%esi),%esi
  100d48:	8b 40 0c             	mov    0xc(%eax),%eax
		pmmap_nentries++;
  100d4b:	89 d1                	mov    %edx,%ecx
  100d4d:	83 c2 01             	add    $0x1,%edx
	pmmap_merge();
	pmmap_dump();

	/* count the number of pmmap entries */
	struct pmmap *slot;
	SLIST_FOREACH(slot, &pmmap_list, next) {
  100d50:	85 c0                	test   %eax,%eax
  100d52:	75 f4                	jne    100d48 <pmmap_init+0x2b8>
  100d54:	89 0d 20 f4 13 00    	mov    %ecx,0x13f420
  100d5a:	e9 99 fe ff ff       	jmp    100bf8 <pmmap_init+0x168>
		last_slot = slot;
	}

	if (last_slot == NULL)
  {
		SLIST_INSERT_HEAD(&pmmap_list, free_slot, next);
  100d5f:	89 51 0c             	mov    %edx,0xc(%ecx)
  100d62:	89 0d 3c f4 13 00    	mov    %ecx,0x13f43c
  100d68:	e9 06 fe ff ff       	jmp    100b73 <pmmap_init+0xe3>
		if ((next_slot = SLIST_NEXT(slot, next)) == NULL)
			break;
		if (slot->start <= next_slot->start &&
		    slot->end >= next_slot->start &&
		    slot->type == next_slot->type) {
			slot->end = max(slot->end, next_slot->end);
  100d6d:	8b 40 04             	mov    0x4(%eax),%eax
  100d70:	89 0c 24             	mov    %ecx,(%esp)
  100d73:	89 44 24 04          	mov    %eax,0x4(%esp)
  100d77:	e8 d4 3f 00 00       	call   104d50 <max>
  100d7c:	89 43 04             	mov    %eax,0x4(%ebx)
			SLIST_REMOVE_AFTER(slot, next);
  100d7f:	8b 43 0c             	mov    0xc(%ebx),%eax
  100d82:	8b 40 0c             	mov    0xc(%eax),%eax
  100d85:	89 43 0c             	mov    %eax,0xc(%ebx)
  100d88:	89 c3                	mov    %eax,%ebx
  100d8a:	e9 54 fe ff ff       	jmp    100be3 <pmmap_init+0x153>
pmmap_insert(uintptr_t start, uintptr_t end, uint32_t type)
{
	struct pmmap *free_slot, *slot, *last_slot;

	if ((free_slot = pmmap_alloc_slot()) == NULL)
		KERN_PANIC("More than 128 E820 entries.\n");
  100d8f:	c7 44 24 08 46 af 10 	movl   $0x10af46,0x8(%esp)
  100d96:	00 
  100d97:	c7 44 24 04 3e 00 00 	movl   $0x3e,0x4(%esp)
  100d9e:	00 
  100d9f:	c7 04 24 63 af 10 00 	movl   $0x10af63,(%esp)
  100da6:	89 54 24 1c          	mov    %edx,0x1c(%esp)
  100daa:	e8 d1 33 00 00       	call   104180 <debug_panic>

struct pmmap *
pmmap_alloc_slot(void)
{
	if (unlikely(pmmap_slots_next_free == 128))
		return NULL;
  100daf:	31 c9                	xor    %ecx,%ecx
  100db1:	8b 54 24 1c          	mov    0x1c(%esp),%edx
  100db5:	e9 81 fd ff ff       	jmp    100b3b <pmmap_init+0xab>
  100dba:	8d b6 00 00 00 00    	lea    0x0(%esi),%esi

00100dc0 <get_size>:

int
get_size(void)
{
	return pmmap_nentries;
}
  100dc0:	a1 20 f4 13 00       	mov    0x13f420,%eax
  100dc5:	c3                   	ret    
  100dc6:	8d 76 00             	lea    0x0(%esi),%esi
  100dc9:	8d bc 27 00 00 00 00 	lea    0x0(%edi,%eiz,1),%edi

00100dd0 <get_mms>:
get_mms(int idx)
{
	int i = 0;
	struct pmmap *slot = NULL;

	SLIST_FOREACH(slot, &pmmap_list, next) {
  100dd0:	a1 3c f4 13 00       	mov    0x13f43c,%eax
	return pmmap_nentries;
}

uint32_t
get_mms(int idx)
{
  100dd5:	8b 4c 24 04          	mov    0x4(%esp),%ecx
	int i = 0;
	struct pmmap *slot = NULL;

	SLIST_FOREACH(slot, &pmmap_list, next) {
  100dd9:	85 c0                	test   %eax,%eax
  100ddb:	74 2b                	je     100e08 <get_mms+0x38>
}

uint32_t
get_mms(int idx)
{
	int i = 0;
  100ddd:	31 d2                	xor    %edx,%edx
	struct pmmap *slot = NULL;

	SLIST_FOREACH(slot, &pmmap_list, next) {
		if (i == idx)
  100ddf:	85 c9                	test   %ecx,%ecx
  100de1:	75 09                	jne    100dec <get_mms+0x1c>
  100de3:	eb 13                	jmp    100df8 <get_mms+0x28>
  100de5:	8d 76 00             	lea    0x0(%esi),%esi
  100de8:	39 d1                	cmp    %edx,%ecx
  100dea:	74 0c                	je     100df8 <get_mms+0x28>
get_mms(int idx)
{
	int i = 0;
	struct pmmap *slot = NULL;

	SLIST_FOREACH(slot, &pmmap_list, next) {
  100dec:	8b 40 0c             	mov    0xc(%eax),%eax
		if (i == idx)
			break;
		i++;
  100def:	83 c2 01             	add    $0x1,%edx
get_mms(int idx)
{
	int i = 0;
	struct pmmap *slot = NULL;

	SLIST_FOREACH(slot, &pmmap_list, next) {
  100df2:	85 c0                	test   %eax,%eax
  100df4:	75 f2                	jne    100de8 <get_mms+0x18>
  100df6:	f3 c3                	repz ret 
		if (i == idx)
			break;
		i++;
	}

	if (slot == NULL || i == pmmap_nentries)
  100df8:	3b 15 20 f4 13 00    	cmp    0x13f420,%edx
  100dfe:	74 08                	je     100e08 <get_mms+0x38>
		return 0;

	return slot->start;
  100e00:	8b 00                	mov    (%eax),%eax
  100e02:	c3                   	ret    
  100e03:	90                   	nop
  100e04:	8d 74 26 00          	lea    0x0(%esi,%eiz,1),%esi
			break;
		i++;
	}

	if (slot == NULL || i == pmmap_nentries)
		return 0;
  100e08:	31 c0                	xor    %eax,%eax
  100e0a:	c3                   	ret    
  100e0b:	90                   	nop
  100e0c:	8d 74 26 00          	lea    0x0(%esi,%eiz,1),%esi

00100e10 <get_mml>:
get_mml(int idx)
{
	int i = 0;
	struct pmmap *slot = NULL;

	SLIST_FOREACH(slot, &pmmap_list, next) {
  100e10:	8b 15 3c f4 13 00    	mov    0x13f43c,%edx
	return slot->start;
}

uint32_t
get_mml(int idx)
{
  100e16:	8b 4c 24 04          	mov    0x4(%esp),%ecx
	int i = 0;
	struct pmmap *slot = NULL;

	SLIST_FOREACH(slot, &pmmap_list, next) {
  100e1a:	85 d2                	test   %edx,%edx
  100e1c:	74 18                	je     100e36 <get_mml+0x26>
}

uint32_t
get_mml(int idx)
{
	int i = 0;
  100e1e:	31 c0                	xor    %eax,%eax
	struct pmmap *slot = NULL;

	SLIST_FOREACH(slot, &pmmap_list, next) {
		if (i == idx)
  100e20:	85 c9                	test   %ecx,%ecx
  100e22:	75 08                	jne    100e2c <get_mml+0x1c>
  100e24:	eb 1a                	jmp    100e40 <get_mml+0x30>
  100e26:	66 90                	xchg   %ax,%ax
  100e28:	39 c1                	cmp    %eax,%ecx
  100e2a:	74 14                	je     100e40 <get_mml+0x30>
get_mml(int idx)
{
	int i = 0;
	struct pmmap *slot = NULL;

	SLIST_FOREACH(slot, &pmmap_list, next) {
  100e2c:	8b 52 0c             	mov    0xc(%edx),%edx
		if (i == idx)
			break;
		i++;
  100e2f:	83 c0 01             	add    $0x1,%eax
get_mml(int idx)
{
	int i = 0;
	struct pmmap *slot = NULL;

	SLIST_FOREACH(slot, &pmmap_list, next) {
  100e32:	85 d2                	test   %edx,%edx
  100e34:	75 f2                	jne    100e28 <get_mml+0x18>
			break;
		i++;
	}

	if (slot == NULL || i == pmmap_nentries)
		return 0;
  100e36:	31 c0                	xor    %eax,%eax
  100e38:	c3                   	ret    
  100e39:	8d b4 26 00 00 00 00 	lea    0x0(%esi,%eiz,1),%esi
		if (i == idx)
			break;
		i++;
	}

	if (slot == NULL || i == pmmap_nentries)
  100e40:	3b 05 20 f4 13 00    	cmp    0x13f420,%eax
  100e46:	74 ee                	je     100e36 <get_mml+0x26>
		return 0;

	return slot->end - slot->start;
  100e48:	8b 42 04             	mov    0x4(%edx),%eax
  100e4b:	2b 02                	sub    (%edx),%eax
  100e4d:	c3                   	ret    
  100e4e:	66 90                	xchg   %ax,%ax

00100e50 <is_usable>:
is_usable(int idx)
{
	int i = 0;
	struct pmmap *slot = NULL;

	SLIST_FOREACH(slot, &pmmap_list, next) {
  100e50:	a1 3c f4 13 00       	mov    0x13f43c,%eax
	return slot->end - slot->start;
}

int
is_usable(int idx)
{
  100e55:	8b 4c 24 04          	mov    0x4(%esp),%ecx
	int i = 0;
	struct pmmap *slot = NULL;

	SLIST_FOREACH(slot, &pmmap_list, next) {
  100e59:	85 c0                	test   %eax,%eax
  100e5b:	74 33                	je     100e90 <is_usable+0x40>
}

int
is_usable(int idx)
{
	int i = 0;
  100e5d:	31 d2                	xor    %edx,%edx
	struct pmmap *slot = NULL;

	SLIST_FOREACH(slot, &pmmap_list, next) {
		if (i == idx)
  100e5f:	85 c9                	test   %ecx,%ecx
  100e61:	75 09                	jne    100e6c <is_usable+0x1c>
  100e63:	eb 13                	jmp    100e78 <is_usable+0x28>
  100e65:	8d 76 00             	lea    0x0(%esi),%esi
  100e68:	39 d1                	cmp    %edx,%ecx
  100e6a:	74 0c                	je     100e78 <is_usable+0x28>
is_usable(int idx)
{
	int i = 0;
	struct pmmap *slot = NULL;

	SLIST_FOREACH(slot, &pmmap_list, next) {
  100e6c:	8b 40 0c             	mov    0xc(%eax),%eax
		if (i == idx)
			break;
		i++;
  100e6f:	83 c2 01             	add    $0x1,%edx
is_usable(int idx)
{
	int i = 0;
	struct pmmap *slot = NULL;

	SLIST_FOREACH(slot, &pmmap_list, next) {
  100e72:	85 c0                	test   %eax,%eax
  100e74:	75 f2                	jne    100e68 <is_usable+0x18>
  100e76:	f3 c3                	repz ret 
		if (i == idx)
			break;
		i++;
	}

	if (slot == NULL || i == pmmap_nentries)
  100e78:	3b 15 20 f4 13 00    	cmp    0x13f420,%edx
  100e7e:	74 10                	je     100e90 <is_usable+0x40>
		return 0;

	return slot->type == MEM_RAM;
  100e80:	83 78 08 01          	cmpl   $0x1,0x8(%eax)
  100e84:	0f 94 c0             	sete   %al
  100e87:	0f b6 c0             	movzbl %al,%eax
  100e8a:	c3                   	ret    
  100e8b:	90                   	nop
  100e8c:	8d 74 26 00          	lea    0x0(%esi,%eiz,1),%esi
			break;
		i++;
	}

	if (slot == NULL || i == pmmap_nentries)
		return 0;
  100e90:	31 c0                	xor    %eax,%eax
  100e92:	c3                   	ret    
  100e93:	8d b6 00 00 00 00    	lea    0x0(%esi),%esi
  100e99:	8d bc 27 00 00 00 00 	lea    0x0(%edi,%eiz,1),%edi

00100ea0 <set_cr3>:
}

void
set_cr3(char **pdir)
{
	lcr3((uint32_t) pdir);
  100ea0:	e9 5b 41 00 00       	jmp    105000 <lcr3>
  100ea5:	8d 74 26 00          	lea    0x0(%esi,%eiz,1),%esi
  100ea9:	8d bc 27 00 00 00 00 	lea    0x0(%edi,%eiz,1),%edi

00100eb0 <enable_paging>:
}

void
enable_paging(void)
{
  100eb0:	83 ec 1c             	sub    $0x1c,%esp
	/* enable global pages (Sec 4.10.2.4, Intel ASDM Vol3) */
	uint32_t cr4 = rcr4();
  100eb3:	e8 68 41 00 00       	call   105020 <rcr4>
	cr4 |= CR4_PGE;
  100eb8:	0c 80                	or     $0x80,%al
	lcr4(cr4);
  100eba:	89 04 24             	mov    %eax,(%esp)
  100ebd:	e8 4e 41 00 00       	call   105010 <lcr4>

	/* turn on paging */
	uint32_t cr0 = rcr0();
  100ec2:	e8 19 41 00 00       	call   104fe0 <rcr0>
	cr0 |= CR0_PE | CR0_PG | CR0_AM | CR0_WP | CR0_NE | CR0_MP;
	cr0 &= ~(CR0_EM | CR0_TS);
  100ec7:	83 e0 f3             	and    $0xfffffff3,%eax
  100eca:	0d 23 00 05 80       	or     $0x80050023,%eax
	lcr0(cr0);
  100ecf:	89 04 24             	mov    %eax,(%esp)
  100ed2:	e8 f9 40 00 00       	call   104fd0 <lcr0>
}
  100ed7:	83 c4 1c             	add    $0x1c,%esp
  100eda:	c3                   	ret    
  100edb:	66 90                	xchg   %ax,%ax
  100edd:	66 90                	xchg   %ax,%ax
  100edf:	90                   	nop

00100ee0 <intr_init>:
	asm volatile("lidt %0" : : "m" (idt_pd));
}

void
intr_init(void)
{
  100ee0:	56                   	push   %esi
  100ee1:	53                   	push   %ebx
  100ee2:	83 ec 34             	sub    $0x34,%esp
  pic_init();
  100ee5:	e8 16 09 00 00       	call   101800 <pic_init>

  uint32_t dummy, edx;
  cpuid(0x00000001, &dummy, &dummy, &dummy, &edx);
  100eea:	8d 44 24 2c          	lea    0x2c(%esp),%eax
  100eee:	89 44 24 10          	mov    %eax,0x10(%esp)
  100ef2:	8d 44 24 28          	lea    0x28(%esp),%eax
  100ef6:	89 44 24 0c          	mov    %eax,0xc(%esp)
  100efa:	89 44 24 08          	mov    %eax,0x8(%esp)
  100efe:	89 44 24 04          	mov    %eax,0x4(%esp)
  100f02:	c7 04 24 01 00 00 00 	movl   $0x1,(%esp)
  100f09:	e8 82 3f 00 00       	call   104e90 <cpuid>
  using_apic = (edx & CPUID_FEATURE_APIC) ? TRUE : FALSE;
  100f0e:	8b 44 24 2c          	mov    0x2c(%esp),%eax
  100f12:	c1 e8 09             	shr    $0x9,%eax
  100f15:	83 e0 01             	and    $0x1,%eax
  100f18:	a2 61 fe 13 00       	mov    %al,0x13fe61
  KERN_ASSERT(using_apic == TRUE);
  100f1d:	0f b6 05 61 fe 13 00 	movzbl 0x13fe61,%eax
  100f24:	3c 01                	cmp    $0x1,%al
  100f26:	74 24                	je     100f4c <intr_init+0x6c>
  100f28:	c7 44 24 0c a9 af 10 	movl   $0x10afa9,0xc(%esp)
  100f2f:	00 
  100f30:	c7 44 24 08 3f ae 10 	movl   $0x10ae3f,0x8(%esp)
  100f37:	00 
  100f38:	c7 44 24 04 5f 00 00 	movl   $0x5f,0x4(%esp)
  100f3f:	00 
  100f40:	c7 04 24 bc af 10 00 	movl   $0x10afbc,(%esp)
  100f47:	e8 34 32 00 00       	call   104180 <debug_panic>

	if (using_apic == TRUE){
  100f4c:	0f b6 05 61 fe 13 00 	movzbl 0x13fe61,%eax
  100f53:	3c 01                	cmp    $0x1,%al
  100f55:	0f 84 a1 06 00 00    	je     1015fc <intr_init+0x71c>
  100f5b:	bb 0e 20 10 00       	mov    $0x10200e,%ebx
	asm volatile("lidt %0" : : "m" (idt_pd));
}

void
intr_init(void)
{
  100f60:	31 c0                	xor    %eax,%eax
  100f62:	89 de                	mov    %ebx,%esi
  100f64:	89 d9                	mov    %ebx,%ecx
  100f66:	c1 ee 10             	shr    $0x10,%esi
  100f69:	89 f2                	mov    %esi,%edx
  100f6b:	90                   	nop
  100f6c:	8d 74 26 00          	lea    0x0(%esi,%eiz,1),%esi
	/* check that T_IRQ0 is a multiple of 8 */
	KERN_ASSERT((T_IRQ0 & 7) == 0);

	/* install a default handler */
	for (i = 0; i < sizeof(idt)/sizeof(idt[0]); i++)
		SETGATE(idt[i], 0, CPU_GDT_KCODE, &Xdefault, 0);
  100f70:	66 89 0c c5 00 b0 9c 	mov    %cx,0x9cb000(,%eax,8)
  100f77:	00 
  100f78:	66 c7 04 c5 02 b0 9c 	movw   $0x8,0x9cb002(,%eax,8)
  100f7f:	00 08 00 
  100f82:	c6 04 c5 04 b0 9c 00 	movb   $0x0,0x9cb004(,%eax,8)
  100f89:	00 
  100f8a:	c6 04 c5 05 b0 9c 00 	movb   $0x8e,0x9cb005(,%eax,8)
  100f91:	8e 
  100f92:	66 89 14 c5 06 b0 9c 	mov    %dx,0x9cb006(,%eax,8)
  100f99:	00 

	/* check that T_IRQ0 is a multiple of 8 */
	KERN_ASSERT((T_IRQ0 & 7) == 0);

	/* install a default handler */
	for (i = 0; i < sizeof(idt)/sizeof(idt[0]); i++)
  100f9a:	83 c0 01             	add    $0x1,%eax
  100f9d:	3d 00 01 00 00       	cmp    $0x100,%eax
  100fa2:	75 cc                	jne    100f70 <intr_init+0x90>
		SETGATE(idt[i], 0, CPU_GDT_KCODE, &Xdefault, 0);

	SETGATE(idt[T_DIVIDE],            0, CPU_GDT_KCODE, &Xdivide,       0);
  100fa4:	b8 00 1f 10 00       	mov    $0x101f00,%eax
  100fa9:	ba 08 00 00 00       	mov    $0x8,%edx
  100fae:	66 a3 00 b0 9c 00    	mov    %ax,0x9cb000
  100fb4:	c1 e8 10             	shr    $0x10,%eax
	SETGATE(idt[T_DEBUG],             0, CPU_GDT_KCODE, &Xdebug,        0);
  100fb7:	b9 08 00 00 00       	mov    $0x8,%ecx

	/* install a default handler */
	for (i = 0; i < sizeof(idt)/sizeof(idt[0]); i++)
		SETGATE(idt[i], 0, CPU_GDT_KCODE, &Xdefault, 0);

	SETGATE(idt[T_DIVIDE],            0, CPU_GDT_KCODE, &Xdivide,       0);
  100fbc:	66 a3 06 b0 9c 00    	mov    %ax,0x9cb006
	SETGATE(idt[T_DEBUG],             0, CPU_GDT_KCODE, &Xdebug,        0);
  100fc2:	b8 0a 1f 10 00       	mov    $0x101f0a,%eax
  100fc7:	66 a3 08 b0 9c 00    	mov    %ax,0x9cb008
  100fcd:	c1 e8 10             	shr    $0x10,%eax
  100fd0:	66 a3 0e b0 9c 00    	mov    %ax,0x9cb00e
	SETGATE(idt[T_NMI],               0, CPU_GDT_KCODE, &Xnmi,          0);
  100fd6:	b8 14 1f 10 00       	mov    $0x101f14,%eax
  100fdb:	66 a3 10 b0 9c 00    	mov    %ax,0x9cb010
  100fe1:	c1 e8 10             	shr    $0x10,%eax
  100fe4:	66 a3 16 b0 9c 00    	mov    %ax,0x9cb016
	SETGATE(idt[T_BRKPT],             0, CPU_GDT_KCODE, &Xbrkpt,        3);
  100fea:	b8 1e 1f 10 00       	mov    $0x101f1e,%eax
  100fef:	66 a3 18 b0 9c 00    	mov    %ax,0x9cb018
  100ff5:	c1 e8 10             	shr    $0x10,%eax
  100ff8:	66 a3 1e b0 9c 00    	mov    %ax,0x9cb01e
	SETGATE(idt[T_OFLOW],             0, CPU_GDT_KCODE, &Xoflow,        3);
  100ffe:	b8 28 1f 10 00       	mov    $0x101f28,%eax
  101003:	66 a3 20 b0 9c 00    	mov    %ax,0x9cb020
  101009:	c1 e8 10             	shr    $0x10,%eax
  10100c:	66 a3 26 b0 9c 00    	mov    %ax,0x9cb026
	SETGATE(idt[T_BOUND],             0, CPU_GDT_KCODE, &Xbound,        0);
  101012:	b8 32 1f 10 00       	mov    $0x101f32,%eax

	/* install a default handler */
	for (i = 0; i < sizeof(idt)/sizeof(idt[0]); i++)
		SETGATE(idt[i], 0, CPU_GDT_KCODE, &Xdefault, 0);

	SETGATE(idt[T_DIVIDE],            0, CPU_GDT_KCODE, &Xdivide,       0);
  101017:	66 89 15 02 b0 9c 00 	mov    %dx,0x9cb002
	SETGATE(idt[T_DEBUG],             0, CPU_GDT_KCODE, &Xdebug,        0);
	SETGATE(idt[T_NMI],               0, CPU_GDT_KCODE, &Xnmi,          0);
  10101e:	ba 08 00 00 00       	mov    $0x8,%edx
	SETGATE(idt[T_BRKPT],             0, CPU_GDT_KCODE, &Xbrkpt,        3);
	SETGATE(idt[T_OFLOW],             0, CPU_GDT_KCODE, &Xoflow,        3);
	SETGATE(idt[T_BOUND],             0, CPU_GDT_KCODE, &Xbound,        0);
  101023:	66 a3 28 b0 9c 00    	mov    %ax,0x9cb028
  101029:	c1 e8 10             	shr    $0x10,%eax
	/* install a default handler */
	for (i = 0; i < sizeof(idt)/sizeof(idt[0]); i++)
		SETGATE(idt[i], 0, CPU_GDT_KCODE, &Xdefault, 0);

	SETGATE(idt[T_DIVIDE],            0, CPU_GDT_KCODE, &Xdivide,       0);
	SETGATE(idt[T_DEBUG],             0, CPU_GDT_KCODE, &Xdebug,        0);
  10102c:	66 89 0d 0a b0 9c 00 	mov    %cx,0x9cb00a
	SETGATE(idt[T_NMI],               0, CPU_GDT_KCODE, &Xnmi,          0);
	SETGATE(idt[T_BRKPT],             0, CPU_GDT_KCODE, &Xbrkpt,        3);
  101033:	b9 08 00 00 00       	mov    $0x8,%ecx
	for (i = 0; i < sizeof(idt)/sizeof(idt[0]); i++)
		SETGATE(idt[i], 0, CPU_GDT_KCODE, &Xdefault, 0);

	SETGATE(idt[T_DIVIDE],            0, CPU_GDT_KCODE, &Xdivide,       0);
	SETGATE(idt[T_DEBUG],             0, CPU_GDT_KCODE, &Xdebug,        0);
	SETGATE(idt[T_NMI],               0, CPU_GDT_KCODE, &Xnmi,          0);
  101038:	66 89 15 12 b0 9c 00 	mov    %dx,0x9cb012
	SETGATE(idt[T_BRKPT],             0, CPU_GDT_KCODE, &Xbrkpt,        3);
	SETGATE(idt[T_OFLOW],             0, CPU_GDT_KCODE, &Xoflow,        3);
  10103f:	ba 08 00 00 00       	mov    $0x8,%edx
	SETGATE(idt[T_BOUND],             0, CPU_GDT_KCODE, &Xbound,        0);
  101044:	66 a3 2e b0 9c 00    	mov    %ax,0x9cb02e
	SETGATE(idt[T_ILLOP],             0, CPU_GDT_KCODE, &Xillop,        0);
  10104a:	b8 3c 1f 10 00       	mov    $0x101f3c,%eax
		SETGATE(idt[i], 0, CPU_GDT_KCODE, &Xdefault, 0);

	SETGATE(idt[T_DIVIDE],            0, CPU_GDT_KCODE, &Xdivide,       0);
	SETGATE(idt[T_DEBUG],             0, CPU_GDT_KCODE, &Xdebug,        0);
	SETGATE(idt[T_NMI],               0, CPU_GDT_KCODE, &Xnmi,          0);
	SETGATE(idt[T_BRKPT],             0, CPU_GDT_KCODE, &Xbrkpt,        3);
  10104f:	66 89 0d 1a b0 9c 00 	mov    %cx,0x9cb01a
	SETGATE(idt[T_OFLOW],             0, CPU_GDT_KCODE, &Xoflow,        3);
	SETGATE(idt[T_BOUND],             0, CPU_GDT_KCODE, &Xbound,        0);
  101056:	b9 08 00 00 00       	mov    $0x8,%ecx

	SETGATE(idt[T_DIVIDE],            0, CPU_GDT_KCODE, &Xdivide,       0);
	SETGATE(idt[T_DEBUG],             0, CPU_GDT_KCODE, &Xdebug,        0);
	SETGATE(idt[T_NMI],               0, CPU_GDT_KCODE, &Xnmi,          0);
	SETGATE(idt[T_BRKPT],             0, CPU_GDT_KCODE, &Xbrkpt,        3);
	SETGATE(idt[T_OFLOW],             0, CPU_GDT_KCODE, &Xoflow,        3);
  10105b:	66 89 15 22 b0 9c 00 	mov    %dx,0x9cb022
	SETGATE(idt[T_BOUND],             0, CPU_GDT_KCODE, &Xbound,        0);
	SETGATE(idt[T_ILLOP],             0, CPU_GDT_KCODE, &Xillop,        0);
  101062:	ba 08 00 00 00       	mov    $0x8,%edx
  101067:	66 a3 30 b0 9c 00    	mov    %ax,0x9cb030
  10106d:	c1 e8 10             	shr    $0x10,%eax
	SETGATE(idt[T_DIVIDE],            0, CPU_GDT_KCODE, &Xdivide,       0);
	SETGATE(idt[T_DEBUG],             0, CPU_GDT_KCODE, &Xdebug,        0);
	SETGATE(idt[T_NMI],               0, CPU_GDT_KCODE, &Xnmi,          0);
	SETGATE(idt[T_BRKPT],             0, CPU_GDT_KCODE, &Xbrkpt,        3);
	SETGATE(idt[T_OFLOW],             0, CPU_GDT_KCODE, &Xoflow,        3);
	SETGATE(idt[T_BOUND],             0, CPU_GDT_KCODE, &Xbound,        0);
  101070:	66 89 0d 2a b0 9c 00 	mov    %cx,0x9cb02a
	SETGATE(idt[T_ILLOP],             0, CPU_GDT_KCODE, &Xillop,        0);
	SETGATE(idt[T_DEVICE],            0, CPU_GDT_KCODE, &Xdevice,       0);
  101077:	b9 08 00 00 00       	mov    $0x8,%ecx
	SETGATE(idt[T_DEBUG],             0, CPU_GDT_KCODE, &Xdebug,        0);
	SETGATE(idt[T_NMI],               0, CPU_GDT_KCODE, &Xnmi,          0);
	SETGATE(idt[T_BRKPT],             0, CPU_GDT_KCODE, &Xbrkpt,        3);
	SETGATE(idt[T_OFLOW],             0, CPU_GDT_KCODE, &Xoflow,        3);
	SETGATE(idt[T_BOUND],             0, CPU_GDT_KCODE, &Xbound,        0);
	SETGATE(idt[T_ILLOP],             0, CPU_GDT_KCODE, &Xillop,        0);
  10107c:	66 89 15 32 b0 9c 00 	mov    %dx,0x9cb032
	SETGATE(idt[T_DEVICE],            0, CPU_GDT_KCODE, &Xdevice,       0);
	SETGATE(idt[T_DBLFLT],            0, CPU_GDT_KCODE, &Xdblflt,       0);
  101083:	ba 08 00 00 00       	mov    $0x8,%edx

	/* install a default handler */
	for (i = 0; i < sizeof(idt)/sizeof(idt[0]); i++)
		SETGATE(idt[i], 0, CPU_GDT_KCODE, &Xdefault, 0);

	SETGATE(idt[T_DIVIDE],            0, CPU_GDT_KCODE, &Xdivide,       0);
  101088:	c6 05 04 b0 9c 00 00 	movb   $0x0,0x9cb004
  10108f:	c6 05 05 b0 9c 00 8e 	movb   $0x8e,0x9cb005
	SETGATE(idt[T_DEBUG],             0, CPU_GDT_KCODE, &Xdebug,        0);
  101096:	c6 05 0c b0 9c 00 00 	movb   $0x0,0x9cb00c
  10109d:	c6 05 0d b0 9c 00 8e 	movb   $0x8e,0x9cb00d
	SETGATE(idt[T_NMI],               0, CPU_GDT_KCODE, &Xnmi,          0);
  1010a4:	c6 05 14 b0 9c 00 00 	movb   $0x0,0x9cb014
  1010ab:	c6 05 15 b0 9c 00 8e 	movb   $0x8e,0x9cb015
	SETGATE(idt[T_BRKPT],             0, CPU_GDT_KCODE, &Xbrkpt,        3);
  1010b2:	c6 05 1c b0 9c 00 00 	movb   $0x0,0x9cb01c
  1010b9:	c6 05 1d b0 9c 00 ee 	movb   $0xee,0x9cb01d
	SETGATE(idt[T_OFLOW],             0, CPU_GDT_KCODE, &Xoflow,        3);
  1010c0:	c6 05 24 b0 9c 00 00 	movb   $0x0,0x9cb024
  1010c7:	c6 05 25 b0 9c 00 ee 	movb   $0xee,0x9cb025
	SETGATE(idt[T_BOUND],             0, CPU_GDT_KCODE, &Xbound,        0);
  1010ce:	c6 05 2c b0 9c 00 00 	movb   $0x0,0x9cb02c
  1010d5:	c6 05 2d b0 9c 00 8e 	movb   $0x8e,0x9cb02d
	SETGATE(idt[T_ILLOP],             0, CPU_GDT_KCODE, &Xillop,        0);
  1010dc:	c6 05 34 b0 9c 00 00 	movb   $0x0,0x9cb034
  1010e3:	c6 05 35 b0 9c 00 8e 	movb   $0x8e,0x9cb035
  1010ea:	66 a3 36 b0 9c 00    	mov    %ax,0x9cb036
	SETGATE(idt[T_DEVICE],            0, CPU_GDT_KCODE, &Xdevice,       0);
  1010f0:	b8 46 1f 10 00       	mov    $0x101f46,%eax
  1010f5:	66 a3 38 b0 9c 00    	mov    %ax,0x9cb038
  1010fb:	c1 e8 10             	shr    $0x10,%eax
  1010fe:	66 a3 3e b0 9c 00    	mov    %ax,0x9cb03e
	SETGATE(idt[T_DBLFLT],            0, CPU_GDT_KCODE, &Xdblflt,       0);
  101104:	b8 50 1f 10 00       	mov    $0x101f50,%eax
  101109:	66 a3 40 b0 9c 00    	mov    %ax,0x9cb040
  10110f:	c1 e8 10             	shr    $0x10,%eax
  101112:	66 a3 46 b0 9c 00    	mov    %ax,0x9cb046
	SETGATE(idt[T_TSS],               0, CPU_GDT_KCODE, &Xtss,          0);
  101118:	b8 62 1f 10 00       	mov    $0x101f62,%eax
  10111d:	66 a3 50 b0 9c 00    	mov    %ax,0x9cb050
  101123:	c1 e8 10             	shr    $0x10,%eax
  101126:	66 a3 56 b0 9c 00    	mov    %ax,0x9cb056
	SETGATE(idt[T_SEGNP],             0, CPU_GDT_KCODE, &Xsegnp,        0);
  10112c:	b8 6a 1f 10 00       	mov    $0x101f6a,%eax
  101131:	66 a3 58 b0 9c 00    	mov    %ax,0x9cb058
  101137:	c1 e8 10             	shr    $0x10,%eax
  10113a:	66 a3 5e b0 9c 00    	mov    %ax,0x9cb05e
	SETGATE(idt[T_STACK],             0, CPU_GDT_KCODE, &Xstack,        0);
  101140:	b8 72 1f 10 00       	mov    $0x101f72,%eax
  101145:	66 a3 60 b0 9c 00    	mov    %ax,0x9cb060
  10114b:	c1 e8 10             	shr    $0x10,%eax
  10114e:	66 a3 66 b0 9c 00    	mov    %ax,0x9cb066
	SETGATE(idt[T_GPFLT],             0, CPU_GDT_KCODE, &Xgpflt,        0);
  101154:	b8 7a 1f 10 00       	mov    $0x101f7a,%eax
	SETGATE(idt[T_NMI],               0, CPU_GDT_KCODE, &Xnmi,          0);
	SETGATE(idt[T_BRKPT],             0, CPU_GDT_KCODE, &Xbrkpt,        3);
	SETGATE(idt[T_OFLOW],             0, CPU_GDT_KCODE, &Xoflow,        3);
	SETGATE(idt[T_BOUND],             0, CPU_GDT_KCODE, &Xbound,        0);
	SETGATE(idt[T_ILLOP],             0, CPU_GDT_KCODE, &Xillop,        0);
	SETGATE(idt[T_DEVICE],            0, CPU_GDT_KCODE, &Xdevice,       0);
  101159:	66 89 0d 3a b0 9c 00 	mov    %cx,0x9cb03a
	SETGATE(idt[T_DBLFLT],            0, CPU_GDT_KCODE, &Xdblflt,       0);
	SETGATE(idt[T_TSS],               0, CPU_GDT_KCODE, &Xtss,          0);
  101160:	b9 08 00 00 00       	mov    $0x8,%ecx
	SETGATE(idt[T_SEGNP],             0, CPU_GDT_KCODE, &Xsegnp,        0);
	SETGATE(idt[T_STACK],             0, CPU_GDT_KCODE, &Xstack,        0);
	SETGATE(idt[T_GPFLT],             0, CPU_GDT_KCODE, &Xgpflt,        0);
  101165:	66 a3 68 b0 9c 00    	mov    %ax,0x9cb068
  10116b:	c1 e8 10             	shr    $0x10,%eax
	SETGATE(idt[T_BRKPT],             0, CPU_GDT_KCODE, &Xbrkpt,        3);
	SETGATE(idt[T_OFLOW],             0, CPU_GDT_KCODE, &Xoflow,        3);
	SETGATE(idt[T_BOUND],             0, CPU_GDT_KCODE, &Xbound,        0);
	SETGATE(idt[T_ILLOP],             0, CPU_GDT_KCODE, &Xillop,        0);
	SETGATE(idt[T_DEVICE],            0, CPU_GDT_KCODE, &Xdevice,       0);
	SETGATE(idt[T_DBLFLT],            0, CPU_GDT_KCODE, &Xdblflt,       0);
  10116e:	66 89 15 42 b0 9c 00 	mov    %dx,0x9cb042
	SETGATE(idt[T_TSS],               0, CPU_GDT_KCODE, &Xtss,          0);
	SETGATE(idt[T_SEGNP],             0, CPU_GDT_KCODE, &Xsegnp,        0);
  101175:	ba 08 00 00 00       	mov    $0x8,%edx
	SETGATE(idt[T_OFLOW],             0, CPU_GDT_KCODE, &Xoflow,        3);
	SETGATE(idt[T_BOUND],             0, CPU_GDT_KCODE, &Xbound,        0);
	SETGATE(idt[T_ILLOP],             0, CPU_GDT_KCODE, &Xillop,        0);
	SETGATE(idt[T_DEVICE],            0, CPU_GDT_KCODE, &Xdevice,       0);
	SETGATE(idt[T_DBLFLT],            0, CPU_GDT_KCODE, &Xdblflt,       0);
	SETGATE(idt[T_TSS],               0, CPU_GDT_KCODE, &Xtss,          0);
  10117a:	66 89 0d 52 b0 9c 00 	mov    %cx,0x9cb052
	SETGATE(idt[T_SEGNP],             0, CPU_GDT_KCODE, &Xsegnp,        0);
	SETGATE(idt[T_STACK],             0, CPU_GDT_KCODE, &Xstack,        0);
  101181:	b9 08 00 00 00       	mov    $0x8,%ecx
	SETGATE(idt[T_GPFLT],             0, CPU_GDT_KCODE, &Xgpflt,        0);
  101186:	66 a3 6e b0 9c 00    	mov    %ax,0x9cb06e
	SETGATE(idt[T_PGFLT],             0, CPU_GDT_KCODE, &Xpgflt,        0);
  10118c:	b8 82 1f 10 00       	mov    $0x101f82,%eax
	SETGATE(idt[T_BOUND],             0, CPU_GDT_KCODE, &Xbound,        0);
	SETGATE(idt[T_ILLOP],             0, CPU_GDT_KCODE, &Xillop,        0);
	SETGATE(idt[T_DEVICE],            0, CPU_GDT_KCODE, &Xdevice,       0);
	SETGATE(idt[T_DBLFLT],            0, CPU_GDT_KCODE, &Xdblflt,       0);
	SETGATE(idt[T_TSS],               0, CPU_GDT_KCODE, &Xtss,          0);
	SETGATE(idt[T_SEGNP],             0, CPU_GDT_KCODE, &Xsegnp,        0);
  101191:	66 89 15 5a b0 9c 00 	mov    %dx,0x9cb05a
	SETGATE(idt[T_STACK],             0, CPU_GDT_KCODE, &Xstack,        0);
	SETGATE(idt[T_GPFLT],             0, CPU_GDT_KCODE, &Xgpflt,        0);
  101198:	ba 08 00 00 00       	mov    $0x8,%edx
	SETGATE(idt[T_ILLOP],             0, CPU_GDT_KCODE, &Xillop,        0);
	SETGATE(idt[T_DEVICE],            0, CPU_GDT_KCODE, &Xdevice,       0);
	SETGATE(idt[T_DBLFLT],            0, CPU_GDT_KCODE, &Xdblflt,       0);
	SETGATE(idt[T_TSS],               0, CPU_GDT_KCODE, &Xtss,          0);
	SETGATE(idt[T_SEGNP],             0, CPU_GDT_KCODE, &Xsegnp,        0);
	SETGATE(idt[T_STACK],             0, CPU_GDT_KCODE, &Xstack,        0);
  10119d:	66 89 0d 62 b0 9c 00 	mov    %cx,0x9cb062
	SETGATE(idt[T_GPFLT],             0, CPU_GDT_KCODE, &Xgpflt,        0);
	SETGATE(idt[T_PGFLT],             0, CPU_GDT_KCODE, &Xpgflt,        0);
  1011a4:	b9 08 00 00 00       	mov    $0x8,%ecx
  1011a9:	66 a3 70 b0 9c 00    	mov    %ax,0x9cb070
  1011af:	c1 e8 10             	shr    $0x10,%eax
	SETGATE(idt[T_DEVICE],            0, CPU_GDT_KCODE, &Xdevice,       0);
	SETGATE(idt[T_DBLFLT],            0, CPU_GDT_KCODE, &Xdblflt,       0);
	SETGATE(idt[T_TSS],               0, CPU_GDT_KCODE, &Xtss,          0);
	SETGATE(idt[T_SEGNP],             0, CPU_GDT_KCODE, &Xsegnp,        0);
	SETGATE(idt[T_STACK],             0, CPU_GDT_KCODE, &Xstack,        0);
	SETGATE(idt[T_GPFLT],             0, CPU_GDT_KCODE, &Xgpflt,        0);
  1011b2:	66 89 15 6a b0 9c 00 	mov    %dx,0x9cb06a
	SETGATE(idt[T_PGFLT],             0, CPU_GDT_KCODE, &Xpgflt,        0);
	SETGATE(idt[T_FPERR],             0, CPU_GDT_KCODE, &Xfperr,        0);
  1011b9:	ba 08 00 00 00       	mov    $0x8,%edx
	SETGATE(idt[T_DBLFLT],            0, CPU_GDT_KCODE, &Xdblflt,       0);
	SETGATE(idt[T_TSS],               0, CPU_GDT_KCODE, &Xtss,          0);
	SETGATE(idt[T_SEGNP],             0, CPU_GDT_KCODE, &Xsegnp,        0);
	SETGATE(idt[T_STACK],             0, CPU_GDT_KCODE, &Xstack,        0);
	SETGATE(idt[T_GPFLT],             0, CPU_GDT_KCODE, &Xgpflt,        0);
	SETGATE(idt[T_PGFLT],             0, CPU_GDT_KCODE, &Xpgflt,        0);
  1011be:	66 89 0d 72 b0 9c 00 	mov    %cx,0x9cb072
	SETGATE(idt[T_FPERR],             0, CPU_GDT_KCODE, &Xfperr,        0);
	SETGATE(idt[T_ALIGN],             0, CPU_GDT_KCODE, &Xalign,        0);
  1011c5:	b9 08 00 00 00       	mov    $0x8,%ecx
	SETGATE(idt[T_NMI],               0, CPU_GDT_KCODE, &Xnmi,          0);
	SETGATE(idt[T_BRKPT],             0, CPU_GDT_KCODE, &Xbrkpt,        3);
	SETGATE(idt[T_OFLOW],             0, CPU_GDT_KCODE, &Xoflow,        3);
	SETGATE(idt[T_BOUND],             0, CPU_GDT_KCODE, &Xbound,        0);
	SETGATE(idt[T_ILLOP],             0, CPU_GDT_KCODE, &Xillop,        0);
	SETGATE(idt[T_DEVICE],            0, CPU_GDT_KCODE, &Xdevice,       0);
  1011ca:	c6 05 3c b0 9c 00 00 	movb   $0x0,0x9cb03c
  1011d1:	c6 05 3d b0 9c 00 8e 	movb   $0x8e,0x9cb03d
	SETGATE(idt[T_DBLFLT],            0, CPU_GDT_KCODE, &Xdblflt,       0);
  1011d8:	c6 05 44 b0 9c 00 00 	movb   $0x0,0x9cb044
  1011df:	c6 05 45 b0 9c 00 8e 	movb   $0x8e,0x9cb045
	SETGATE(idt[T_TSS],               0, CPU_GDT_KCODE, &Xtss,          0);
  1011e6:	c6 05 54 b0 9c 00 00 	movb   $0x0,0x9cb054
  1011ed:	c6 05 55 b0 9c 00 8e 	movb   $0x8e,0x9cb055
	SETGATE(idt[T_SEGNP],             0, CPU_GDT_KCODE, &Xsegnp,        0);
  1011f4:	c6 05 5c b0 9c 00 00 	movb   $0x0,0x9cb05c
  1011fb:	c6 05 5d b0 9c 00 8e 	movb   $0x8e,0x9cb05d
	SETGATE(idt[T_STACK],             0, CPU_GDT_KCODE, &Xstack,        0);
  101202:	c6 05 64 b0 9c 00 00 	movb   $0x0,0x9cb064
  101209:	c6 05 65 b0 9c 00 8e 	movb   $0x8e,0x9cb065
	SETGATE(idt[T_GPFLT],             0, CPU_GDT_KCODE, &Xgpflt,        0);
  101210:	c6 05 6c b0 9c 00 00 	movb   $0x0,0x9cb06c
  101217:	c6 05 6d b0 9c 00 8e 	movb   $0x8e,0x9cb06d
	SETGATE(idt[T_PGFLT],             0, CPU_GDT_KCODE, &Xpgflt,        0);
  10121e:	c6 05 74 b0 9c 00 00 	movb   $0x0,0x9cb074
  101225:	66 a3 76 b0 9c 00    	mov    %ax,0x9cb076
	SETGATE(idt[T_FPERR],             0, CPU_GDT_KCODE, &Xfperr,        0);
  10122b:	b8 94 1f 10 00       	mov    $0x101f94,%eax
  101230:	66 a3 80 b0 9c 00    	mov    %ax,0x9cb080
  101236:	c1 e8 10             	shr    $0x10,%eax
  101239:	66 a3 86 b0 9c 00    	mov    %ax,0x9cb086
	SETGATE(idt[T_ALIGN],             0, CPU_GDT_KCODE, &Xalign,        0);
  10123f:	b8 9e 1f 10 00       	mov    $0x101f9e,%eax
  101244:	66 a3 88 b0 9c 00    	mov    %ax,0x9cb088
  10124a:	c1 e8 10             	shr    $0x10,%eax
  10124d:	66 a3 8e b0 9c 00    	mov    %ax,0x9cb08e
	SETGATE(idt[T_MCHK],              0, CPU_GDT_KCODE, &Xmchk,         0);
  101253:	b8 a2 1f 10 00       	mov    $0x101fa2,%eax
  101258:	66 a3 90 b0 9c 00    	mov    %ax,0x9cb090
  10125e:	c1 e8 10             	shr    $0x10,%eax
  101261:	66 a3 96 b0 9c 00    	mov    %ax,0x9cb096

	SETGATE(idt[T_IRQ0+IRQ_TIMER],    0, CPU_GDT_KCODE, &Xirq_timer,    0);
  101267:	b8 a8 1f 10 00       	mov    $0x101fa8,%eax
  10126c:	66 a3 00 b1 9c 00    	mov    %ax,0x9cb100
  101272:	c1 e8 10             	shr    $0x10,%eax
  101275:	66 a3 06 b1 9c 00    	mov    %ax,0x9cb106
	SETGATE(idt[T_IRQ0+IRQ_KBD],      0, CPU_GDT_KCODE, &Xirq_kbd,      0);
  10127b:	b8 ae 1f 10 00       	mov    $0x101fae,%eax
  101280:	66 a3 08 b1 9c 00    	mov    %ax,0x9cb108
  101286:	c1 e8 10             	shr    $0x10,%eax
  101289:	66 a3 0e b1 9c 00    	mov    %ax,0x9cb10e
	SETGATE(idt[T_IRQ0+IRQ_SLAVE],    0, CPU_GDT_KCODE, &Xirq_slave,    0);
  10128f:	b8 b4 1f 10 00       	mov    $0x101fb4,%eax
	SETGATE(idt[T_TSS],               0, CPU_GDT_KCODE, &Xtss,          0);
	SETGATE(idt[T_SEGNP],             0, CPU_GDT_KCODE, &Xsegnp,        0);
	SETGATE(idt[T_STACK],             0, CPU_GDT_KCODE, &Xstack,        0);
	SETGATE(idt[T_GPFLT],             0, CPU_GDT_KCODE, &Xgpflt,        0);
	SETGATE(idt[T_PGFLT],             0, CPU_GDT_KCODE, &Xpgflt,        0);
	SETGATE(idt[T_FPERR],             0, CPU_GDT_KCODE, &Xfperr,        0);
  101294:	66 89 15 82 b0 9c 00 	mov    %dx,0x9cb082
	SETGATE(idt[T_ALIGN],             0, CPU_GDT_KCODE, &Xalign,        0);
	SETGATE(idt[T_MCHK],              0, CPU_GDT_KCODE, &Xmchk,         0);
  10129b:	ba 08 00 00 00       	mov    $0x8,%edx

	SETGATE(idt[T_IRQ0+IRQ_TIMER],    0, CPU_GDT_KCODE, &Xirq_timer,    0);
	SETGATE(idt[T_IRQ0+IRQ_KBD],      0, CPU_GDT_KCODE, &Xirq_kbd,      0);
	SETGATE(idt[T_IRQ0+IRQ_SLAVE],    0, CPU_GDT_KCODE, &Xirq_slave,    0);
  1012a0:	66 a3 10 b1 9c 00    	mov    %ax,0x9cb110
  1012a6:	c1 e8 10             	shr    $0x10,%eax
	SETGATE(idt[T_SEGNP],             0, CPU_GDT_KCODE, &Xsegnp,        0);
	SETGATE(idt[T_STACK],             0, CPU_GDT_KCODE, &Xstack,        0);
	SETGATE(idt[T_GPFLT],             0, CPU_GDT_KCODE, &Xgpflt,        0);
	SETGATE(idt[T_PGFLT],             0, CPU_GDT_KCODE, &Xpgflt,        0);
	SETGATE(idt[T_FPERR],             0, CPU_GDT_KCODE, &Xfperr,        0);
	SETGATE(idt[T_ALIGN],             0, CPU_GDT_KCODE, &Xalign,        0);
  1012a9:	66 89 0d 8a b0 9c 00 	mov    %cx,0x9cb08a
	SETGATE(idt[T_MCHK],              0, CPU_GDT_KCODE, &Xmchk,         0);

	SETGATE(idt[T_IRQ0+IRQ_TIMER],    0, CPU_GDT_KCODE, &Xirq_timer,    0);
  1012b0:	b9 08 00 00 00       	mov    $0x8,%ecx
	SETGATE(idt[T_STACK],             0, CPU_GDT_KCODE, &Xstack,        0);
	SETGATE(idt[T_GPFLT],             0, CPU_GDT_KCODE, &Xgpflt,        0);
	SETGATE(idt[T_PGFLT],             0, CPU_GDT_KCODE, &Xpgflt,        0);
	SETGATE(idt[T_FPERR],             0, CPU_GDT_KCODE, &Xfperr,        0);
	SETGATE(idt[T_ALIGN],             0, CPU_GDT_KCODE, &Xalign,        0);
	SETGATE(idt[T_MCHK],              0, CPU_GDT_KCODE, &Xmchk,         0);
  1012b5:	66 89 15 92 b0 9c 00 	mov    %dx,0x9cb092

	SETGATE(idt[T_IRQ0+IRQ_TIMER],    0, CPU_GDT_KCODE, &Xirq_timer,    0);
	SETGATE(idt[T_IRQ0+IRQ_KBD],      0, CPU_GDT_KCODE, &Xirq_kbd,      0);
  1012bc:	ba 08 00 00 00       	mov    $0x8,%edx
	SETGATE(idt[T_IRQ0+IRQ_SLAVE],    0, CPU_GDT_KCODE, &Xirq_slave,    0);
  1012c1:	66 a3 16 b1 9c 00    	mov    %ax,0x9cb116
	SETGATE(idt[T_IRQ0+IRQ_SERIAL24], 0, CPU_GDT_KCODE, &Xirq_serial2,  0);
  1012c7:	b8 ba 1f 10 00       	mov    $0x101fba,%eax
	SETGATE(idt[T_PGFLT],             0, CPU_GDT_KCODE, &Xpgflt,        0);
	SETGATE(idt[T_FPERR],             0, CPU_GDT_KCODE, &Xfperr,        0);
	SETGATE(idt[T_ALIGN],             0, CPU_GDT_KCODE, &Xalign,        0);
	SETGATE(idt[T_MCHK],              0, CPU_GDT_KCODE, &Xmchk,         0);

	SETGATE(idt[T_IRQ0+IRQ_TIMER],    0, CPU_GDT_KCODE, &Xirq_timer,    0);
  1012cc:	66 89 0d 02 b1 9c 00 	mov    %cx,0x9cb102
	SETGATE(idt[T_IRQ0+IRQ_KBD],      0, CPU_GDT_KCODE, &Xirq_kbd,      0);
	SETGATE(idt[T_IRQ0+IRQ_SLAVE],    0, CPU_GDT_KCODE, &Xirq_slave,    0);
  1012d3:	b9 08 00 00 00       	mov    $0x8,%ecx
	SETGATE(idt[T_FPERR],             0, CPU_GDT_KCODE, &Xfperr,        0);
	SETGATE(idt[T_ALIGN],             0, CPU_GDT_KCODE, &Xalign,        0);
	SETGATE(idt[T_MCHK],              0, CPU_GDT_KCODE, &Xmchk,         0);

	SETGATE(idt[T_IRQ0+IRQ_TIMER],    0, CPU_GDT_KCODE, &Xirq_timer,    0);
	SETGATE(idt[T_IRQ0+IRQ_KBD],      0, CPU_GDT_KCODE, &Xirq_kbd,      0);
  1012d8:	66 89 15 0a b1 9c 00 	mov    %dx,0x9cb10a
	SETGATE(idt[T_IRQ0+IRQ_SLAVE],    0, CPU_GDT_KCODE, &Xirq_slave,    0);
	SETGATE(idt[T_IRQ0+IRQ_SERIAL24], 0, CPU_GDT_KCODE, &Xirq_serial2,  0);
  1012df:	ba 08 00 00 00       	mov    $0x8,%edx
  1012e4:	66 a3 18 b1 9c 00    	mov    %ax,0x9cb118
  1012ea:	c1 e8 10             	shr    $0x10,%eax
	SETGATE(idt[T_ALIGN],             0, CPU_GDT_KCODE, &Xalign,        0);
	SETGATE(idt[T_MCHK],              0, CPU_GDT_KCODE, &Xmchk,         0);

	SETGATE(idt[T_IRQ0+IRQ_TIMER],    0, CPU_GDT_KCODE, &Xirq_timer,    0);
	SETGATE(idt[T_IRQ0+IRQ_KBD],      0, CPU_GDT_KCODE, &Xirq_kbd,      0);
	SETGATE(idt[T_IRQ0+IRQ_SLAVE],    0, CPU_GDT_KCODE, &Xirq_slave,    0);
  1012ed:	66 89 0d 12 b1 9c 00 	mov    %cx,0x9cb112
	SETGATE(idt[T_IRQ0+IRQ_SERIAL24], 0, CPU_GDT_KCODE, &Xirq_serial2,  0);
	SETGATE(idt[T_IRQ0+IRQ_SERIAL13], 0, CPU_GDT_KCODE, &Xirq_serial1,  0);
  1012f4:	b9 08 00 00 00       	mov    $0x8,%ecx
	SETGATE(idt[T_DBLFLT],            0, CPU_GDT_KCODE, &Xdblflt,       0);
	SETGATE(idt[T_TSS],               0, CPU_GDT_KCODE, &Xtss,          0);
	SETGATE(idt[T_SEGNP],             0, CPU_GDT_KCODE, &Xsegnp,        0);
	SETGATE(idt[T_STACK],             0, CPU_GDT_KCODE, &Xstack,        0);
	SETGATE(idt[T_GPFLT],             0, CPU_GDT_KCODE, &Xgpflt,        0);
	SETGATE(idt[T_PGFLT],             0, CPU_GDT_KCODE, &Xpgflt,        0);
  1012f9:	c6 05 75 b0 9c 00 8e 	movb   $0x8e,0x9cb075
	SETGATE(idt[T_FPERR],             0, CPU_GDT_KCODE, &Xfperr,        0);
  101300:	c6 05 84 b0 9c 00 00 	movb   $0x0,0x9cb084
  101307:	c6 05 85 b0 9c 00 8e 	movb   $0x8e,0x9cb085
	SETGATE(idt[T_ALIGN],             0, CPU_GDT_KCODE, &Xalign,        0);
  10130e:	c6 05 8c b0 9c 00 00 	movb   $0x0,0x9cb08c
  101315:	c6 05 8d b0 9c 00 8e 	movb   $0x8e,0x9cb08d
	SETGATE(idt[T_MCHK],              0, CPU_GDT_KCODE, &Xmchk,         0);
  10131c:	c6 05 94 b0 9c 00 00 	movb   $0x0,0x9cb094
  101323:	c6 05 95 b0 9c 00 8e 	movb   $0x8e,0x9cb095

	SETGATE(idt[T_IRQ0+IRQ_TIMER],    0, CPU_GDT_KCODE, &Xirq_timer,    0);
  10132a:	c6 05 04 b1 9c 00 00 	movb   $0x0,0x9cb104
  101331:	c6 05 05 b1 9c 00 8e 	movb   $0x8e,0x9cb105
	SETGATE(idt[T_IRQ0+IRQ_KBD],      0, CPU_GDT_KCODE, &Xirq_kbd,      0);
  101338:	c6 05 0c b1 9c 00 00 	movb   $0x0,0x9cb10c
  10133f:	c6 05 0d b1 9c 00 8e 	movb   $0x8e,0x9cb10d
	SETGATE(idt[T_IRQ0+IRQ_SLAVE],    0, CPU_GDT_KCODE, &Xirq_slave,    0);
  101346:	c6 05 14 b1 9c 00 00 	movb   $0x0,0x9cb114
  10134d:	c6 05 15 b1 9c 00 8e 	movb   $0x8e,0x9cb115
	SETGATE(idt[T_IRQ0+IRQ_SERIAL24], 0, CPU_GDT_KCODE, &Xirq_serial2,  0);
  101354:	66 89 15 1a b1 9c 00 	mov    %dx,0x9cb11a
	SETGATE(idt[T_IRQ0+IRQ_SERIAL13], 0, CPU_GDT_KCODE, &Xirq_serial1,  0);
	SETGATE(idt[T_IRQ0+IRQ_LPT2],     0, CPU_GDT_KCODE, &Xirq_lpt,      0);
  10135b:	ba 08 00 00 00       	mov    $0x8,%edx
	SETGATE(idt[T_MCHK],              0, CPU_GDT_KCODE, &Xmchk,         0);

	SETGATE(idt[T_IRQ0+IRQ_TIMER],    0, CPU_GDT_KCODE, &Xirq_timer,    0);
	SETGATE(idt[T_IRQ0+IRQ_KBD],      0, CPU_GDT_KCODE, &Xirq_kbd,      0);
	SETGATE(idt[T_IRQ0+IRQ_SLAVE],    0, CPU_GDT_KCODE, &Xirq_slave,    0);
	SETGATE(idt[T_IRQ0+IRQ_SERIAL24], 0, CPU_GDT_KCODE, &Xirq_serial2,  0);
  101360:	66 a3 1e b1 9c 00    	mov    %ax,0x9cb11e
	SETGATE(idt[T_IRQ0+IRQ_SERIAL13], 0, CPU_GDT_KCODE, &Xirq_serial1,  0);
  101366:	b8 c0 1f 10 00       	mov    $0x101fc0,%eax
  10136b:	66 a3 20 b1 9c 00    	mov    %ax,0x9cb120
  101371:	c1 e8 10             	shr    $0x10,%eax
  101374:	66 a3 26 b1 9c 00    	mov    %ax,0x9cb126
	SETGATE(idt[T_IRQ0+IRQ_LPT2],     0, CPU_GDT_KCODE, &Xirq_lpt,      0);
  10137a:	b8 c6 1f 10 00       	mov    $0x101fc6,%eax
  10137f:	66 a3 28 b1 9c 00    	mov    %ax,0x9cb128
  101385:	c1 e8 10             	shr    $0x10,%eax
  101388:	66 a3 2e b1 9c 00    	mov    %ax,0x9cb12e
	SETGATE(idt[T_IRQ0+IRQ_FLOPPY],   0, CPU_GDT_KCODE, &Xirq_floppy,   0);
  10138e:	b8 cc 1f 10 00       	mov    $0x101fcc,%eax
  101393:	66 a3 30 b1 9c 00    	mov    %ax,0x9cb130
  101399:	c1 e8 10             	shr    $0x10,%eax
  10139c:	66 a3 36 b1 9c 00    	mov    %ax,0x9cb136
	SETGATE(idt[T_IRQ0+IRQ_SPURIOUS], 0, CPU_GDT_KCODE, &Xirq_spurious, 0);
  1013a2:	b8 d2 1f 10 00       	mov    $0x101fd2,%eax
  1013a7:	66 a3 38 b1 9c 00    	mov    %ax,0x9cb138
  1013ad:	c1 e8 10             	shr    $0x10,%eax
  1013b0:	66 a3 3e b1 9c 00    	mov    %ax,0x9cb13e
	SETGATE(idt[T_IRQ0+IRQ_RTC],      0, CPU_GDT_KCODE, &Xirq_rtc,      0);
  1013b6:	b8 d8 1f 10 00       	mov    $0x101fd8,%eax
  1013bb:	66 a3 40 b1 9c 00    	mov    %ax,0x9cb140
  1013c1:	c1 e8 10             	shr    $0x10,%eax
  1013c4:	66 a3 46 b1 9c 00    	mov    %ax,0x9cb146
	SETGATE(idt[T_IRQ0+9],            0, CPU_GDT_KCODE, &Xirq9,         0);
  1013ca:	b8 de 1f 10 00       	mov    $0x101fde,%eax

	SETGATE(idt[T_IRQ0+IRQ_TIMER],    0, CPU_GDT_KCODE, &Xirq_timer,    0);
	SETGATE(idt[T_IRQ0+IRQ_KBD],      0, CPU_GDT_KCODE, &Xirq_kbd,      0);
	SETGATE(idt[T_IRQ0+IRQ_SLAVE],    0, CPU_GDT_KCODE, &Xirq_slave,    0);
	SETGATE(idt[T_IRQ0+IRQ_SERIAL24], 0, CPU_GDT_KCODE, &Xirq_serial2,  0);
	SETGATE(idt[T_IRQ0+IRQ_SERIAL13], 0, CPU_GDT_KCODE, &Xirq_serial1,  0);
  1013cf:	66 89 0d 22 b1 9c 00 	mov    %cx,0x9cb122
	SETGATE(idt[T_IRQ0+IRQ_LPT2],     0, CPU_GDT_KCODE, &Xirq_lpt,      0);
	SETGATE(idt[T_IRQ0+IRQ_FLOPPY],   0, CPU_GDT_KCODE, &Xirq_floppy,   0);
  1013d6:	b9 08 00 00 00       	mov    $0x8,%ecx
	SETGATE(idt[T_IRQ0+IRQ_TIMER],    0, CPU_GDT_KCODE, &Xirq_timer,    0);
	SETGATE(idt[T_IRQ0+IRQ_KBD],      0, CPU_GDT_KCODE, &Xirq_kbd,      0);
	SETGATE(idt[T_IRQ0+IRQ_SLAVE],    0, CPU_GDT_KCODE, &Xirq_slave,    0);
	SETGATE(idt[T_IRQ0+IRQ_SERIAL24], 0, CPU_GDT_KCODE, &Xirq_serial2,  0);
	SETGATE(idt[T_IRQ0+IRQ_SERIAL13], 0, CPU_GDT_KCODE, &Xirq_serial1,  0);
	SETGATE(idt[T_IRQ0+IRQ_LPT2],     0, CPU_GDT_KCODE, &Xirq_lpt,      0);
  1013db:	66 89 15 2a b1 9c 00 	mov    %dx,0x9cb12a
	SETGATE(idt[T_IRQ0+IRQ_FLOPPY],   0, CPU_GDT_KCODE, &Xirq_floppy,   0);
	SETGATE(idt[T_IRQ0+IRQ_SPURIOUS], 0, CPU_GDT_KCODE, &Xirq_spurious, 0);
  1013e2:	ba 08 00 00 00       	mov    $0x8,%edx
	SETGATE(idt[T_IRQ0+IRQ_RTC],      0, CPU_GDT_KCODE, &Xirq_rtc,      0);
	SETGATE(idt[T_IRQ0+9],            0, CPU_GDT_KCODE, &Xirq9,         0);
  1013e7:	66 a3 48 b1 9c 00    	mov    %ax,0x9cb148
  1013ed:	c1 e8 10             	shr    $0x10,%eax
	SETGATE(idt[T_IRQ0+IRQ_KBD],      0, CPU_GDT_KCODE, &Xirq_kbd,      0);
	SETGATE(idt[T_IRQ0+IRQ_SLAVE],    0, CPU_GDT_KCODE, &Xirq_slave,    0);
	SETGATE(idt[T_IRQ0+IRQ_SERIAL24], 0, CPU_GDT_KCODE, &Xirq_serial2,  0);
	SETGATE(idt[T_IRQ0+IRQ_SERIAL13], 0, CPU_GDT_KCODE, &Xirq_serial1,  0);
	SETGATE(idt[T_IRQ0+IRQ_LPT2],     0, CPU_GDT_KCODE, &Xirq_lpt,      0);
	SETGATE(idt[T_IRQ0+IRQ_FLOPPY],   0, CPU_GDT_KCODE, &Xirq_floppy,   0);
  1013f0:	66 89 0d 32 b1 9c 00 	mov    %cx,0x9cb132
	SETGATE(idt[T_IRQ0+IRQ_SPURIOUS], 0, CPU_GDT_KCODE, &Xirq_spurious, 0);
	SETGATE(idt[T_IRQ0+IRQ_RTC],      0, CPU_GDT_KCODE, &Xirq_rtc,      0);
  1013f7:	b9 08 00 00 00       	mov    $0x8,%ecx
	SETGATE(idt[T_IRQ0+IRQ_SLAVE],    0, CPU_GDT_KCODE, &Xirq_slave,    0);
	SETGATE(idt[T_IRQ0+IRQ_SERIAL24], 0, CPU_GDT_KCODE, &Xirq_serial2,  0);
	SETGATE(idt[T_IRQ0+IRQ_SERIAL13], 0, CPU_GDT_KCODE, &Xirq_serial1,  0);
	SETGATE(idt[T_IRQ0+IRQ_LPT2],     0, CPU_GDT_KCODE, &Xirq_lpt,      0);
	SETGATE(idt[T_IRQ0+IRQ_FLOPPY],   0, CPU_GDT_KCODE, &Xirq_floppy,   0);
	SETGATE(idt[T_IRQ0+IRQ_SPURIOUS], 0, CPU_GDT_KCODE, &Xirq_spurious, 0);
  1013fc:	66 89 15 3a b1 9c 00 	mov    %dx,0x9cb13a
	SETGATE(idt[T_IRQ0+IRQ_RTC],      0, CPU_GDT_KCODE, &Xirq_rtc,      0);
	SETGATE(idt[T_IRQ0+9],            0, CPU_GDT_KCODE, &Xirq9,         0);
  101403:	ba 08 00 00 00       	mov    $0x8,%edx
  101408:	66 a3 4e b1 9c 00    	mov    %ax,0x9cb14e
	SETGATE(idt[T_IRQ0+10],           0, CPU_GDT_KCODE, &Xirq10,        0);
  10140e:	b8 e4 1f 10 00       	mov    $0x101fe4,%eax
	SETGATE(idt[T_IRQ0+IRQ_SERIAL24], 0, CPU_GDT_KCODE, &Xirq_serial2,  0);
	SETGATE(idt[T_IRQ0+IRQ_SERIAL13], 0, CPU_GDT_KCODE, &Xirq_serial1,  0);
	SETGATE(idt[T_IRQ0+IRQ_LPT2],     0, CPU_GDT_KCODE, &Xirq_lpt,      0);
	SETGATE(idt[T_IRQ0+IRQ_FLOPPY],   0, CPU_GDT_KCODE, &Xirq_floppy,   0);
	SETGATE(idt[T_IRQ0+IRQ_SPURIOUS], 0, CPU_GDT_KCODE, &Xirq_spurious, 0);
	SETGATE(idt[T_IRQ0+IRQ_RTC],      0, CPU_GDT_KCODE, &Xirq_rtc,      0);
  101413:	66 89 0d 42 b1 9c 00 	mov    %cx,0x9cb142
	SETGATE(idt[T_IRQ0+9],            0, CPU_GDT_KCODE, &Xirq9,         0);
	SETGATE(idt[T_IRQ0+10],           0, CPU_GDT_KCODE, &Xirq10,        0);
  10141a:	b9 08 00 00 00       	mov    $0x8,%ecx
	SETGATE(idt[T_IRQ0+IRQ_SERIAL13], 0, CPU_GDT_KCODE, &Xirq_serial1,  0);
	SETGATE(idt[T_IRQ0+IRQ_LPT2],     0, CPU_GDT_KCODE, &Xirq_lpt,      0);
	SETGATE(idt[T_IRQ0+IRQ_FLOPPY],   0, CPU_GDT_KCODE, &Xirq_floppy,   0);
	SETGATE(idt[T_IRQ0+IRQ_SPURIOUS], 0, CPU_GDT_KCODE, &Xirq_spurious, 0);
	SETGATE(idt[T_IRQ0+IRQ_RTC],      0, CPU_GDT_KCODE, &Xirq_rtc,      0);
	SETGATE(idt[T_IRQ0+9],            0, CPU_GDT_KCODE, &Xirq9,         0);
  10141f:	66 89 15 4a b1 9c 00 	mov    %dx,0x9cb14a
	SETGATE(idt[T_IRQ0+10],           0, CPU_GDT_KCODE, &Xirq10,        0);
	SETGATE(idt[T_IRQ0+11],           0, CPU_GDT_KCODE, &Xirq11,        0);
  101426:	ba 08 00 00 00       	mov    $0x8,%edx
	SETGATE(idt[T_MCHK],              0, CPU_GDT_KCODE, &Xmchk,         0);

	SETGATE(idt[T_IRQ0+IRQ_TIMER],    0, CPU_GDT_KCODE, &Xirq_timer,    0);
	SETGATE(idt[T_IRQ0+IRQ_KBD],      0, CPU_GDT_KCODE, &Xirq_kbd,      0);
	SETGATE(idt[T_IRQ0+IRQ_SLAVE],    0, CPU_GDT_KCODE, &Xirq_slave,    0);
	SETGATE(idt[T_IRQ0+IRQ_SERIAL24], 0, CPU_GDT_KCODE, &Xirq_serial2,  0);
  10142b:	c6 05 1c b1 9c 00 00 	movb   $0x0,0x9cb11c
  101432:	c6 05 1d b1 9c 00 8e 	movb   $0x8e,0x9cb11d
	SETGATE(idt[T_IRQ0+IRQ_SERIAL13], 0, CPU_GDT_KCODE, &Xirq_serial1,  0);
  101439:	c6 05 24 b1 9c 00 00 	movb   $0x0,0x9cb124
  101440:	c6 05 25 b1 9c 00 8e 	movb   $0x8e,0x9cb125
	SETGATE(idt[T_IRQ0+IRQ_LPT2],     0, CPU_GDT_KCODE, &Xirq_lpt,      0);
  101447:	c6 05 2c b1 9c 00 00 	movb   $0x0,0x9cb12c
  10144e:	c6 05 2d b1 9c 00 8e 	movb   $0x8e,0x9cb12d
	SETGATE(idt[T_IRQ0+IRQ_FLOPPY],   0, CPU_GDT_KCODE, &Xirq_floppy,   0);
  101455:	c6 05 34 b1 9c 00 00 	movb   $0x0,0x9cb134
  10145c:	c6 05 35 b1 9c 00 8e 	movb   $0x8e,0x9cb135
	SETGATE(idt[T_IRQ0+IRQ_SPURIOUS], 0, CPU_GDT_KCODE, &Xirq_spurious, 0);
  101463:	c6 05 3c b1 9c 00 00 	movb   $0x0,0x9cb13c
  10146a:	c6 05 3d b1 9c 00 8e 	movb   $0x8e,0x9cb13d
	SETGATE(idt[T_IRQ0+IRQ_RTC],      0, CPU_GDT_KCODE, &Xirq_rtc,      0);
  101471:	c6 05 44 b1 9c 00 00 	movb   $0x0,0x9cb144
  101478:	c6 05 45 b1 9c 00 8e 	movb   $0x8e,0x9cb145
	SETGATE(idt[T_IRQ0+9],            0, CPU_GDT_KCODE, &Xirq9,         0);
  10147f:	c6 05 4c b1 9c 00 00 	movb   $0x0,0x9cb14c
  101486:	c6 05 4d b1 9c 00 8e 	movb   $0x8e,0x9cb14d
	SETGATE(idt[T_IRQ0+10],           0, CPU_GDT_KCODE, &Xirq10,        0);
  10148d:	66 a3 50 b1 9c 00    	mov    %ax,0x9cb150
  101493:	c1 e8 10             	shr    $0x10,%eax
  101496:	66 a3 56 b1 9c 00    	mov    %ax,0x9cb156
	SETGATE(idt[T_IRQ0+11],           0, CPU_GDT_KCODE, &Xirq11,        0);
  10149c:	b8 ea 1f 10 00       	mov    $0x101fea,%eax
  1014a1:	66 a3 58 b1 9c 00    	mov    %ax,0x9cb158
  1014a7:	c1 e8 10             	shr    $0x10,%eax
  1014aa:	66 a3 5e b1 9c 00    	mov    %ax,0x9cb15e
	SETGATE(idt[T_IRQ0+IRQ_MOUSE],    0, CPU_GDT_KCODE, &Xirq_mouse,    0);
  1014b0:	b8 f0 1f 10 00       	mov    $0x101ff0,%eax
  1014b5:	66 a3 60 b1 9c 00    	mov    %ax,0x9cb160
  1014bb:	c1 e8 10             	shr    $0x10,%eax
  1014be:	66 a3 66 b1 9c 00    	mov    %ax,0x9cb166
	SETGATE(idt[T_IRQ0+IRQ_COPROCESSOR], 0, CPU_GDT_KCODE, &Xirq_coproc, 0);
  1014c4:	b8 f6 1f 10 00       	mov    $0x101ff6,%eax
  1014c9:	66 a3 68 b1 9c 00    	mov    %ax,0x9cb168
  1014cf:	c1 e8 10             	shr    $0x10,%eax
  1014d2:	66 a3 6e b1 9c 00    	mov    %ax,0x9cb16e
	SETGATE(idt[T_IRQ0+IRQ_IDE1],     0, CPU_GDT_KCODE, &Xirq_ide1,     0);
  1014d8:	b8 fc 1f 10 00       	mov    $0x101ffc,%eax
  1014dd:	66 a3 70 b1 9c 00    	mov    %ax,0x9cb170
  1014e3:	c1 e8 10             	shr    $0x10,%eax
  1014e6:	66 a3 76 b1 9c 00    	mov    %ax,0x9cb176
	SETGATE(idt[T_IRQ0+IRQ_IDE2],     0, CPU_GDT_KCODE, &Xirq_ide2,     0);
  1014ec:	b8 02 20 10 00       	mov    $0x102002,%eax
	SETGATE(idt[T_IRQ0+IRQ_LPT2],     0, CPU_GDT_KCODE, &Xirq_lpt,      0);
	SETGATE(idt[T_IRQ0+IRQ_FLOPPY],   0, CPU_GDT_KCODE, &Xirq_floppy,   0);
	SETGATE(idt[T_IRQ0+IRQ_SPURIOUS], 0, CPU_GDT_KCODE, &Xirq_spurious, 0);
	SETGATE(idt[T_IRQ0+IRQ_RTC],      0, CPU_GDT_KCODE, &Xirq_rtc,      0);
	SETGATE(idt[T_IRQ0+9],            0, CPU_GDT_KCODE, &Xirq9,         0);
	SETGATE(idt[T_IRQ0+10],           0, CPU_GDT_KCODE, &Xirq10,        0);
  1014f1:	66 89 0d 52 b1 9c 00 	mov    %cx,0x9cb152
	SETGATE(idt[T_IRQ0+11],           0, CPU_GDT_KCODE, &Xirq11,        0);
	SETGATE(idt[T_IRQ0+IRQ_MOUSE],    0, CPU_GDT_KCODE, &Xirq_mouse,    0);
  1014f8:	b9 08 00 00 00       	mov    $0x8,%ecx
	SETGATE(idt[T_IRQ0+IRQ_COPROCESSOR], 0, CPU_GDT_KCODE, &Xirq_coproc, 0);
	SETGATE(idt[T_IRQ0+IRQ_IDE1],     0, CPU_GDT_KCODE, &Xirq_ide1,     0);
	SETGATE(idt[T_IRQ0+IRQ_IDE2],     0, CPU_GDT_KCODE, &Xirq_ide2,     0);
  1014fd:	66 a3 78 b1 9c 00    	mov    %ax,0x9cb178
  101503:	c1 e8 10             	shr    $0x10,%eax
	SETGATE(idt[T_IRQ0+IRQ_FLOPPY],   0, CPU_GDT_KCODE, &Xirq_floppy,   0);
	SETGATE(idt[T_IRQ0+IRQ_SPURIOUS], 0, CPU_GDT_KCODE, &Xirq_spurious, 0);
	SETGATE(idt[T_IRQ0+IRQ_RTC],      0, CPU_GDT_KCODE, &Xirq_rtc,      0);
	SETGATE(idt[T_IRQ0+9],            0, CPU_GDT_KCODE, &Xirq9,         0);
	SETGATE(idt[T_IRQ0+10],           0, CPU_GDT_KCODE, &Xirq10,        0);
	SETGATE(idt[T_IRQ0+11],           0, CPU_GDT_KCODE, &Xirq11,        0);
  101506:	66 89 15 5a b1 9c 00 	mov    %dx,0x9cb15a
	SETGATE(idt[T_IRQ0+IRQ_MOUSE],    0, CPU_GDT_KCODE, &Xirq_mouse,    0);
	SETGATE(idt[T_IRQ0+IRQ_COPROCESSOR], 0, CPU_GDT_KCODE, &Xirq_coproc, 0);
  10150d:	ba 08 00 00 00       	mov    $0x8,%edx
	SETGATE(idt[T_IRQ0+IRQ_SPURIOUS], 0, CPU_GDT_KCODE, &Xirq_spurious, 0);
	SETGATE(idt[T_IRQ0+IRQ_RTC],      0, CPU_GDT_KCODE, &Xirq_rtc,      0);
	SETGATE(idt[T_IRQ0+9],            0, CPU_GDT_KCODE, &Xirq9,         0);
	SETGATE(idt[T_IRQ0+10],           0, CPU_GDT_KCODE, &Xirq10,        0);
	SETGATE(idt[T_IRQ0+11],           0, CPU_GDT_KCODE, &Xirq11,        0);
	SETGATE(idt[T_IRQ0+IRQ_MOUSE],    0, CPU_GDT_KCODE, &Xirq_mouse,    0);
  101512:	66 89 0d 62 b1 9c 00 	mov    %cx,0x9cb162
	SETGATE(idt[T_IRQ0+IRQ_COPROCESSOR], 0, CPU_GDT_KCODE, &Xirq_coproc, 0);
	SETGATE(idt[T_IRQ0+IRQ_IDE1],     0, CPU_GDT_KCODE, &Xirq_ide1,     0);
  101519:	b9 08 00 00 00       	mov    $0x8,%ecx
	SETGATE(idt[T_IRQ0+IRQ_IDE2],     0, CPU_GDT_KCODE, &Xirq_ide2,     0);
  10151e:	66 a3 7e b1 9c 00    	mov    %ax,0x9cb17e

	// Use DPL=3 here because system calls are explicitly invoked
	// by the user process (with "int $T_SYSCALL").
	SETGATE(idt[T_SYSCALL],           0, CPU_GDT_KCODE, &Xsyscall,      3);
  101524:	b8 08 20 10 00       	mov    $0x102008,%eax
	SETGATE(idt[T_IRQ0+IRQ_RTC],      0, CPU_GDT_KCODE, &Xirq_rtc,      0);
	SETGATE(idt[T_IRQ0+9],            0, CPU_GDT_KCODE, &Xirq9,         0);
	SETGATE(idt[T_IRQ0+10],           0, CPU_GDT_KCODE, &Xirq10,        0);
	SETGATE(idt[T_IRQ0+11],           0, CPU_GDT_KCODE, &Xirq11,        0);
	SETGATE(idt[T_IRQ0+IRQ_MOUSE],    0, CPU_GDT_KCODE, &Xirq_mouse,    0);
	SETGATE(idt[T_IRQ0+IRQ_COPROCESSOR], 0, CPU_GDT_KCODE, &Xirq_coproc, 0);
  101529:	66 89 15 6a b1 9c 00 	mov    %dx,0x9cb16a
	SETGATE(idt[T_IRQ0+IRQ_IDE1],     0, CPU_GDT_KCODE, &Xirq_ide1,     0);
	SETGATE(idt[T_IRQ0+IRQ_IDE2],     0, CPU_GDT_KCODE, &Xirq_ide2,     0);
  101530:	ba 08 00 00 00       	mov    $0x8,%edx
	SETGATE(idt[T_IRQ0+9],            0, CPU_GDT_KCODE, &Xirq9,         0);
	SETGATE(idt[T_IRQ0+10],           0, CPU_GDT_KCODE, &Xirq10,        0);
	SETGATE(idt[T_IRQ0+11],           0, CPU_GDT_KCODE, &Xirq11,        0);
	SETGATE(idt[T_IRQ0+IRQ_MOUSE],    0, CPU_GDT_KCODE, &Xirq_mouse,    0);
	SETGATE(idt[T_IRQ0+IRQ_COPROCESSOR], 0, CPU_GDT_KCODE, &Xirq_coproc, 0);
	SETGATE(idt[T_IRQ0+IRQ_IDE1],     0, CPU_GDT_KCODE, &Xirq_ide1,     0);
  101535:	66 89 0d 72 b1 9c 00 	mov    %cx,0x9cb172
	SETGATE(idt[T_IRQ0+IRQ_IDE2],     0, CPU_GDT_KCODE, &Xirq_ide2,     0);

	// Use DPL=3 here because system calls are explicitly invoked
	// by the user process (with "int $T_SYSCALL").
	SETGATE(idt[T_SYSCALL],           0, CPU_GDT_KCODE, &Xsyscall,      3);
  10153c:	b9 08 00 00 00       	mov    $0x8,%ecx
  101541:	66 a3 80 b1 9c 00    	mov    %ax,0x9cb180
  101547:	c1 e8 10             	shr    $0x10,%eax
	SETGATE(idt[T_IRQ0+10],           0, CPU_GDT_KCODE, &Xirq10,        0);
	SETGATE(idt[T_IRQ0+11],           0, CPU_GDT_KCODE, &Xirq11,        0);
	SETGATE(idt[T_IRQ0+IRQ_MOUSE],    0, CPU_GDT_KCODE, &Xirq_mouse,    0);
	SETGATE(idt[T_IRQ0+IRQ_COPROCESSOR], 0, CPU_GDT_KCODE, &Xirq_coproc, 0);
	SETGATE(idt[T_IRQ0+IRQ_IDE1],     0, CPU_GDT_KCODE, &Xirq_ide1,     0);
	SETGATE(idt[T_IRQ0+IRQ_IDE2],     0, CPU_GDT_KCODE, &Xirq_ide2,     0);
  10154a:	66 89 15 7a b1 9c 00 	mov    %dx,0x9cb17a

	// Use DPL=3 here because system calls are explicitly invoked
	// by the user process (with "int $T_SYSCALL").
	SETGATE(idt[T_SYSCALL],           0, CPU_GDT_KCODE, &Xsyscall,      3);
  101551:	66 89 0d 82 b1 9c 00 	mov    %cx,0x9cb182
	SETGATE(idt[T_IRQ0+IRQ_LPT2],     0, CPU_GDT_KCODE, &Xirq_lpt,      0);
	SETGATE(idt[T_IRQ0+IRQ_FLOPPY],   0, CPU_GDT_KCODE, &Xirq_floppy,   0);
	SETGATE(idt[T_IRQ0+IRQ_SPURIOUS], 0, CPU_GDT_KCODE, &Xirq_spurious, 0);
	SETGATE(idt[T_IRQ0+IRQ_RTC],      0, CPU_GDT_KCODE, &Xirq_rtc,      0);
	SETGATE(idt[T_IRQ0+9],            0, CPU_GDT_KCODE, &Xirq9,         0);
	SETGATE(idt[T_IRQ0+10],           0, CPU_GDT_KCODE, &Xirq10,        0);
  101558:	c6 05 54 b1 9c 00 00 	movb   $0x0,0x9cb154
  10155f:	c6 05 55 b1 9c 00 8e 	movb   $0x8e,0x9cb155
	SETGATE(idt[T_IRQ0+11],           0, CPU_GDT_KCODE, &Xirq11,        0);
  101566:	c6 05 5c b1 9c 00 00 	movb   $0x0,0x9cb15c
  10156d:	c6 05 5d b1 9c 00 8e 	movb   $0x8e,0x9cb15d
	SETGATE(idt[T_IRQ0+IRQ_MOUSE],    0, CPU_GDT_KCODE, &Xirq_mouse,    0);
  101574:	c6 05 64 b1 9c 00 00 	movb   $0x0,0x9cb164
  10157b:	c6 05 65 b1 9c 00 8e 	movb   $0x8e,0x9cb165
	SETGATE(idt[T_IRQ0+IRQ_COPROCESSOR], 0, CPU_GDT_KCODE, &Xirq_coproc, 0);
  101582:	c6 05 6c b1 9c 00 00 	movb   $0x0,0x9cb16c
  101589:	c6 05 6d b1 9c 00 8e 	movb   $0x8e,0x9cb16d
	SETGATE(idt[T_IRQ0+IRQ_IDE1],     0, CPU_GDT_KCODE, &Xirq_ide1,     0);
  101590:	c6 05 74 b1 9c 00 00 	movb   $0x0,0x9cb174
  101597:	c6 05 75 b1 9c 00 8e 	movb   $0x8e,0x9cb175
	SETGATE(idt[T_IRQ0+IRQ_IDE2],     0, CPU_GDT_KCODE, &Xirq_ide2,     0);
  10159e:	c6 05 7c b1 9c 00 00 	movb   $0x0,0x9cb17c
  1015a5:	c6 05 7d b1 9c 00 8e 	movb   $0x8e,0x9cb17d

	// Use DPL=3 here because system calls are explicitly invoked
	// by the user process (with "int $T_SYSCALL").
	SETGATE(idt[T_SYSCALL],           0, CPU_GDT_KCODE, &Xsyscall,      3);
  1015ac:	c6 05 84 b1 9c 00 00 	movb   $0x0,0x9cb184
  1015b3:	c6 05 85 b1 9c 00 ee 	movb   $0xee,0x9cb185
  1015ba:	66 a3 86 b1 9c 00    	mov    %ax,0x9cb186

	/* default */
	SETGATE(idt[T_DEFAULT],           0, CPU_GDT_KCODE, &Xdefault,      0);
  1015c0:	66 89 1d f0 b7 9c 00 	mov    %bx,0x9cb7f0
  1015c7:	bb 08 00 00 00       	mov    $0x8,%ebx
  1015cc:	66 89 1d f2 b7 9c 00 	mov    %bx,0x9cb7f2
  1015d3:	c6 05 f4 b7 9c 00 00 	movb   $0x0,0x9cb7f4
  1015da:	c6 05 f5 b7 9c 00 8e 	movb   $0x8e,0x9cb7f5
  1015e1:	66 89 35 f6 b7 9c 00 	mov    %si,0x9cb7f6

	asm volatile("lidt %0" : : "m" (idt_pd));
  1015e8:	0f 01 1d 00 03 11 00 	lidtl  0x110300
		}
		lapic_init();
	}

	intr_init_idt();
	intr_inited = TRUE;
  1015ef:	c6 05 60 fe 13 00 01 	movb   $0x1,0x13fe60
}
  1015f6:	83 c4 34             	add    $0x34,%esp
  1015f9:	5b                   	pop    %ebx
  1015fa:	5e                   	pop    %esi
  1015fb:	c3                   	ret    
  cpuid(0x00000001, &dummy, &dummy, &dummy, &edx);
  using_apic = (edx & CPUID_FEATURE_APIC) ? TRUE : FALSE;
  KERN_ASSERT(using_apic == TRUE);

	if (using_apic == TRUE){
		if(pcpu_onboot()){
  1015fc:	e8 7f 1f 00 00       	call   103580 <pcpu_onboot>
  101601:	85 c0                	test   %eax,%eax
  101603:	75 10                	jne    101615 <intr_init+0x735>
			ioapic_init();
		}
		lapic_init();
  101605:	e8 36 0d 00 00       	call   102340 <lapic_init>
  10160a:	8d b6 00 00 00 00    	lea    0x0(%esi),%esi
  101610:	e9 46 f9 ff ff       	jmp    100f5b <intr_init+0x7b>
  using_apic = (edx & CPUID_FEATURE_APIC) ? TRUE : FALSE;
  KERN_ASSERT(using_apic == TRUE);

	if (using_apic == TRUE){
		if(pcpu_onboot()){
			ioapic_init();
  101615:	e8 46 12 00 00       	call   102860 <ioapic_init>
  10161a:	8d b6 00 00 00 00    	lea    0x0(%esi),%esi
  101620:	eb e3                	jmp    101605 <intr_init+0x725>
  101622:	8d b4 26 00 00 00 00 	lea    0x0(%esi,%eiz,1),%esi
  101629:	8d bc 27 00 00 00 00 	lea    0x0(%edi,%eiz,1),%edi

00101630 <intr_enable>:
	intr_inited = TRUE;
}

void
intr_enable(uint8_t irq, int cpunum)
{
  101630:	56                   	push   %esi
  101631:	53                   	push   %ebx
  101632:	83 ec 14             	sub    $0x14,%esp
  101635:	8b 5c 24 24          	mov    0x24(%esp),%ebx
  101639:	8b 74 24 20          	mov    0x20(%esp),%esi
    KERN_ASSERT(cpunum == 0xff || (0 <= cpunum && cpunum < pcpu_ncpu()));
  10163d:	81 fb ff 00 00 00    	cmp    $0xff,%ebx
  101643:	74 0d                	je     101652 <intr_enable+0x22>
  101645:	85 db                	test   %ebx,%ebx
  101647:	78 77                	js     1016c0 <intr_enable+0x90>
  101649:	e8 12 1f 00 00       	call   103560 <pcpu_ncpu>
  10164e:	39 c3                	cmp    %eax,%ebx
  101650:	7d 6e                	jge    1016c0 <intr_enable+0x90>

    if (irq >= 24)
  101652:	89 f0                	mov    %esi,%eax
  101654:	3c 17                	cmp    $0x17,%al
  101656:	77 61                	ja     1016b9 <intr_enable+0x89>
        return;

    if (using_apic == TRUE) {
  101658:	0f b6 05 61 fe 13 00 	movzbl 0x13fe61,%eax
  10165f:	3c 01                	cmp    $0x1,%al
  101661:	74 1d                	je     101680 <intr_enable+0x50>
        ioapic_enable(irq, (cpunum == 0xff) ?
                          0xff : pcpu_cpu_lapicid(cpunum), 0, 0);
    } else {
        KERN_ASSERT(irq < 16);
  101663:	89 f0                	mov    %esi,%eax
  101665:	3c 0f                	cmp    $0xf,%al
  101667:	0f 87 83 00 00 00    	ja     1016f0 <intr_enable+0xc0>
        pic_enable(irq);
  10166d:	89 f0                	mov    %esi,%eax
  10166f:	0f b6 f0             	movzbl %al,%esi
  101672:	89 74 24 20          	mov    %esi,0x20(%esp)
    }
}
  101676:	83 c4 14             	add    $0x14,%esp
  101679:	5b                   	pop    %ebx
  10167a:	5e                   	pop    %esi
    if (using_apic == TRUE) {
        ioapic_enable(irq, (cpunum == 0xff) ?
                          0xff : pcpu_cpu_lapicid(cpunum), 0, 0);
    } else {
        KERN_ASSERT(irq < 16);
        pic_enable(irq);
  10167b:	e9 20 03 00 00       	jmp    1019a0 <pic_enable>

    if (irq >= 24)
        return;

    if (using_apic == TRUE) {
        ioapic_enable(irq, (cpunum == 0xff) ?
  101680:	81 fb ff 00 00 00    	cmp    $0xff,%ebx
  101686:	b8 ff 00 00 00       	mov    $0xff,%eax
  10168b:	74 0b                	je     101698 <intr_enable+0x68>
                          0xff : pcpu_cpu_lapicid(cpunum), 0, 0);
  10168d:	89 1c 24             	mov    %ebx,(%esp)
  101690:	e8 1b 1f 00 00       	call   1035b0 <pcpu_cpu_lapicid>

    if (irq >= 24)
        return;

    if (using_apic == TRUE) {
        ioapic_enable(irq, (cpunum == 0xff) ?
  101695:	0f b6 c0             	movzbl %al,%eax
  101698:	89 44 24 04          	mov    %eax,0x4(%esp)
  10169c:	89 f0                	mov    %esi,%eax
  10169e:	0f b6 f0             	movzbl %al,%esi
  1016a1:	c7 44 24 0c 00 00 00 	movl   $0x0,0xc(%esp)
  1016a8:	00 
  1016a9:	c7 44 24 08 00 00 00 	movl   $0x0,0x8(%esp)
  1016b0:	00 
  1016b1:	89 34 24             	mov    %esi,(%esp)
  1016b4:	e8 b7 12 00 00       	call   102970 <ioapic_enable>
                          0xff : pcpu_cpu_lapicid(cpunum), 0, 0);
    } else {
        KERN_ASSERT(irq < 16);
        pic_enable(irq);
    }
}
  1016b9:	83 c4 14             	add    $0x14,%esp
  1016bc:	5b                   	pop    %ebx
  1016bd:	5e                   	pop    %esi
  1016be:	c3                   	ret    
  1016bf:	90                   	nop
}

void
intr_enable(uint8_t irq, int cpunum)
{
    KERN_ASSERT(cpunum == 0xff || (0 <= cpunum && cpunum < pcpu_ncpu()));
  1016c0:	c7 44 24 0c d8 af 10 	movl   $0x10afd8,0xc(%esp)
  1016c7:	00 
  1016c8:	c7 44 24 08 3f ae 10 	movl   $0x10ae3f,0x8(%esp)
  1016cf:	00 
  1016d0:	c7 44 24 04 6f 00 00 	movl   $0x6f,0x4(%esp)
  1016d7:	00 
  1016d8:	c7 04 24 bc af 10 00 	movl   $0x10afbc,(%esp)
  1016df:	e8 9c 2a 00 00       	call   104180 <debug_panic>
  1016e4:	e9 69 ff ff ff       	jmp    101652 <intr_enable+0x22>
  1016e9:	8d b4 26 00 00 00 00 	lea    0x0(%esi,%eiz,1),%esi

    if (using_apic == TRUE) {
        ioapic_enable(irq, (cpunum == 0xff) ?
                          0xff : pcpu_cpu_lapicid(cpunum), 0, 0);
    } else {
        KERN_ASSERT(irq < 16);
  1016f0:	c7 44 24 0c cc af 10 	movl   $0x10afcc,0xc(%esp)
  1016f7:	00 
  1016f8:	c7 44 24 08 3f ae 10 	movl   $0x10ae3f,0x8(%esp)
  1016ff:	00 
  101700:	c7 44 24 04 78 00 00 	movl   $0x78,0x4(%esp)
  101707:	00 
  101708:	c7 04 24 bc af 10 00 	movl   $0x10afbc,(%esp)
  10170f:	e8 6c 2a 00 00       	call   104180 <debug_panic>
  101714:	e9 54 ff ff ff       	jmp    10166d <intr_enable+0x3d>
  101719:	8d b4 26 00 00 00 00 	lea    0x0(%esi,%eiz,1),%esi

00101720 <intr_enable_lapicid>:
    }
}

void
intr_enable_lapicid(uint8_t irq, int lapic_id)
{
  101720:	53                   	push   %ebx
  101721:	83 ec 18             	sub    $0x18,%esp
  101724:	8b 5c 24 20          	mov    0x20(%esp),%ebx
  101728:	8b 54 24 24          	mov    0x24(%esp),%edx
    if (irq > 24)
  10172c:	80 fb 18             	cmp    $0x18,%bl
  10172f:	77 4f                	ja     101780 <intr_enable_lapicid+0x60>
        return;

    if (using_apic == TRUE) {
  101731:	0f b6 05 61 fe 13 00 	movzbl 0x13fe61,%eax
  101738:	3c 01                	cmp    $0x1,%al
  10173a:	74 1c                	je     101758 <intr_enable_lapicid+0x38>
        ioapic_enable(irq, (lapic_id == 0xff) ?
                          0xff : lapic_id, 0, 0);
    } else {
        KERN_ASSERT(irq < 16);
  10173c:	80 fb 0f             	cmp    $0xf,%bl
  10173f:	77 47                	ja     101788 <intr_enable_lapicid+0x68>
        pic_enable(irq);
  101741:	0f b6 db             	movzbl %bl,%ebx
  101744:	89 5c 24 20          	mov    %ebx,0x20(%esp)
    }
}
  101748:	83 c4 18             	add    $0x18,%esp
  10174b:	5b                   	pop    %ebx
    if (using_apic == TRUE) {
        ioapic_enable(irq, (lapic_id == 0xff) ?
                          0xff : lapic_id, 0, 0);
    } else {
        KERN_ASSERT(irq < 16);
        pic_enable(irq);
  10174c:	e9 4f 02 00 00       	jmp    1019a0 <pic_enable>
  101751:	8d b4 26 00 00 00 00 	lea    0x0(%esi,%eiz,1),%esi
{
    if (irq > 24)
        return;

    if (using_apic == TRUE) {
        ioapic_enable(irq, (lapic_id == 0xff) ?
  101758:	0f b6 d2             	movzbl %dl,%edx
  10175b:	0f b6 db             	movzbl %bl,%ebx
  10175e:	c7 44 24 0c 00 00 00 	movl   $0x0,0xc(%esp)
  101765:	00 
  101766:	c7 44 24 08 00 00 00 	movl   $0x0,0x8(%esp)
  10176d:	00 
  10176e:	89 54 24 04          	mov    %edx,0x4(%esp)
  101772:	89 1c 24             	mov    %ebx,(%esp)
  101775:	e8 f6 11 00 00       	call   102970 <ioapic_enable>
  10177a:	8d b6 00 00 00 00    	lea    0x0(%esi),%esi
                          0xff : lapic_id, 0, 0);
    } else {
        KERN_ASSERT(irq < 16);
        pic_enable(irq);
    }
}
  101780:	83 c4 18             	add    $0x18,%esp
  101783:	5b                   	pop    %ebx
  101784:	c3                   	ret    
  101785:	8d 76 00             	lea    0x0(%esi),%esi

    if (using_apic == TRUE) {
        ioapic_enable(irq, (lapic_id == 0xff) ?
                          0xff : lapic_id, 0, 0);
    } else {
        KERN_ASSERT(irq < 16);
  101788:	c7 44 24 0c cc af 10 	movl   $0x10afcc,0xc(%esp)
  10178f:	00 
        pic_enable(irq);
  101790:	0f b6 db             	movzbl %bl,%ebx

    if (using_apic == TRUE) {
        ioapic_enable(irq, (lapic_id == 0xff) ?
                          0xff : lapic_id, 0, 0);
    } else {
        KERN_ASSERT(irq < 16);
  101793:	c7 44 24 08 3f ae 10 	movl   $0x10ae3f,0x8(%esp)
  10179a:	00 
  10179b:	c7 44 24 04 87 00 00 	movl   $0x87,0x4(%esp)
  1017a2:	00 
  1017a3:	c7 04 24 bc af 10 00 	movl   $0x10afbc,(%esp)
  1017aa:	e8 d1 29 00 00       	call   104180 <debug_panic>
        pic_enable(irq);
  1017af:	89 5c 24 20          	mov    %ebx,0x20(%esp)
    }
}
  1017b3:	83 c4 18             	add    $0x18,%esp
  1017b6:	5b                   	pop    %ebx
    if (using_apic == TRUE) {
        ioapic_enable(irq, (lapic_id == 0xff) ?
                          0xff : lapic_id, 0, 0);
    } else {
        KERN_ASSERT(irq < 16);
        pic_enable(irq);
  1017b7:	e9 e4 01 00 00       	jmp    1019a0 <pic_enable>
  1017bc:	8d 74 26 00          	lea    0x0(%esi,%eiz,1),%esi

001017c0 <intr_eoi>:
}

void
intr_eoi(void)
{
  if (using_apic == TRUE)
  1017c0:	0f b6 05 61 fe 13 00 	movzbl 0x13fe61,%eax
  1017c7:	3c 01                	cmp    $0x1,%al
  1017c9:	74 05                	je     1017d0 <intr_eoi+0x10>
    lapic_eoi();
  else
	  pic_eoi();
  1017cb:	e9 f0 01 00 00       	jmp    1019c0 <pic_eoi>

void
intr_eoi(void)
{
  if (using_apic == TRUE)
    lapic_eoi();
  1017d0:	e9 5b 0e 00 00       	jmp    102630 <lapic_eoi>
  1017d5:	8d 74 26 00          	lea    0x0(%esi,%eiz,1),%esi
  1017d9:	8d bc 27 00 00 00 00 	lea    0x0(%edi,%eiz,1),%edi

001017e0 <intr_local_enable>:
}

void
intr_local_enable(void)
{
	sti();
  1017e0:	e9 1b 36 00 00       	jmp    104e00 <sti>
  1017e5:	8d 74 26 00          	lea    0x0(%esi,%eiz,1),%esi
  1017e9:	8d bc 27 00 00 00 00 	lea    0x0(%edi,%eiz,1),%edi

001017f0 <intr_local_disable>:
}

void
intr_local_disable(void)
{
	cli();
  1017f0:	e9 fb 35 00 00       	jmp    104df0 <cli>
  1017f5:	66 90                	xchg   %ax,%ax
  1017f7:	66 90                	xchg   %ax,%ax
  1017f9:	66 90                	xchg   %ax,%ax
  1017fb:	66 90                	xchg   %ax,%ax
  1017fd:	66 90                	xchg   %ax,%ax
  1017ff:	90                   	nop

00101800 <pic_init>:

/* Initialize the 8259A interrupt controllers. */
void
pic_init(void)
{
	if (pic_inited == TRUE)		// only do once on bootstrap CPU
  101800:	80 3d 62 fe 13 00 01 	cmpb   $0x1,0x13fe62
  101807:	0f 84 4d 01 00 00    	je     10195a <pic_init+0x15a>
static bool pic_inited = FALSE;

/* Initialize the 8259A interrupt controllers. */
void
pic_init(void)
{
  10180d:	83 ec 1c             	sub    $0x1c,%esp
	if (pic_inited == TRUE)		// only do once on bootstrap CPU
		return;
	pic_inited = TRUE;

	/* mask all interrupts */
	outb(IO_PIC1+1, 0xff);
  101810:	c7 44 24 04 ff 00 00 	movl   $0xff,0x4(%esp)
  101817:	00 
  101818:	c7 04 24 21 00 00 00 	movl   $0x21,(%esp)
void
pic_init(void)
{
	if (pic_inited == TRUE)		// only do once on bootstrap CPU
		return;
	pic_inited = TRUE;
  10181f:	c6 05 62 fe 13 00 01 	movb   $0x1,0x13fe62

	/* mask all interrupts */
	outb(IO_PIC1+1, 0xff);
  101826:	e8 35 38 00 00       	call   105060 <outb>
	outb(IO_PIC2+1, 0xff);
  10182b:	c7 44 24 04 ff 00 00 	movl   $0xff,0x4(%esp)
  101832:	00 
  101833:	c7 04 24 a1 00 00 00 	movl   $0xa1,(%esp)
  10183a:	e8 21 38 00 00       	call   105060 <outb>

	// ICW1:  0001g0hi
	//    g:  0 = edge triggering, 1 = level triggering
	//    h:  0 = cascaded PICs, 1 = master only
	//    i:  0 = no ICW4, 1 = ICW4 required
	outb(IO_PIC1, 0x11);
  10183f:	c7 44 24 04 11 00 00 	movl   $0x11,0x4(%esp)
  101846:	00 
  101847:	c7 04 24 20 00 00 00 	movl   $0x20,(%esp)
  10184e:	e8 0d 38 00 00       	call   105060 <outb>

	// ICW2:  Vector offset
	outb(IO_PIC1+1, T_IRQ0);
  101853:	c7 44 24 04 20 00 00 	movl   $0x20,0x4(%esp)
  10185a:	00 
  10185b:	c7 04 24 21 00 00 00 	movl   $0x21,(%esp)
  101862:	e8 f9 37 00 00       	call   105060 <outb>

	// ICW3:  bit mask of IR lines connected to slave PICs (master PIC),
	//        3-bit No of IR line at which slave connects to master(slave PIC).
	outb(IO_PIC1+1, 1<<IRQ_SLAVE);
  101867:	c7 44 24 04 04 00 00 	movl   $0x4,0x4(%esp)
  10186e:	00 
  10186f:	c7 04 24 21 00 00 00 	movl   $0x21,(%esp)
  101876:	e8 e5 37 00 00       	call   105060 <outb>
	//    m:  0 = slave PIC, 1 = master PIC
	//	  (ignored when b is 0, as the master/slave role
	//	  can be hardwired).
	//    a:  1 = Automatic EOI mode
	//    p:  0 = MCS-80/85 mode, 1 = intel x86 mode
	outb(IO_PIC1+1, 0x1);
  10187b:	c7 44 24 04 01 00 00 	movl   $0x1,0x4(%esp)
  101882:	00 
  101883:	c7 04 24 21 00 00 00 	movl   $0x21,(%esp)
  10188a:	e8 d1 37 00 00       	call   105060 <outb>

	// Set up slave (8259A-2)
	outb(IO_PIC2, 0x11);			// ICW1
  10188f:	c7 44 24 04 11 00 00 	movl   $0x11,0x4(%esp)
  101896:	00 
  101897:	c7 04 24 a0 00 00 00 	movl   $0xa0,(%esp)
  10189e:	e8 bd 37 00 00       	call   105060 <outb>
	outb(IO_PIC2+1, T_IRQ0 + 8);		// ICW2
  1018a3:	c7 44 24 04 28 00 00 	movl   $0x28,0x4(%esp)
  1018aa:	00 
  1018ab:	c7 04 24 a1 00 00 00 	movl   $0xa1,(%esp)
  1018b2:	e8 a9 37 00 00       	call   105060 <outb>
	outb(IO_PIC2+1, IRQ_SLAVE);		// ICW3
  1018b7:	c7 44 24 04 02 00 00 	movl   $0x2,0x4(%esp)
  1018be:	00 
  1018bf:	c7 04 24 a1 00 00 00 	movl   $0xa1,(%esp)
  1018c6:	e8 95 37 00 00       	call   105060 <outb>
	// NB Automatic EOI mode doesn't tend to work on the slave.
	// Linux source code says it's "to be investigated".
	outb(IO_PIC2+1, 0x01);			// ICW4
  1018cb:	c7 44 24 04 01 00 00 	movl   $0x1,0x4(%esp)
  1018d2:	00 
  1018d3:	c7 04 24 a1 00 00 00 	movl   $0xa1,(%esp)
  1018da:	e8 81 37 00 00       	call   105060 <outb>

	// OCW3:  0ef01prs
	//   ef:  0x = NOP, 10 = clear specific mask, 11 = set specific mask
	//    p:  0 = no polling, 1 = polling mode
	//   rs:  0x = NOP, 10 = read IRR, 11 = read ISR
	outb(IO_PIC1, 0x68);             /* clear specific mask */
  1018df:	c7 44 24 04 68 00 00 	movl   $0x68,0x4(%esp)
  1018e6:	00 
  1018e7:	c7 04 24 20 00 00 00 	movl   $0x20,(%esp)
  1018ee:	e8 6d 37 00 00       	call   105060 <outb>
	outb(IO_PIC1, 0x0a);             /* read IRR by default */
  1018f3:	c7 44 24 04 0a 00 00 	movl   $0xa,0x4(%esp)
  1018fa:	00 
  1018fb:	c7 04 24 20 00 00 00 	movl   $0x20,(%esp)
  101902:	e8 59 37 00 00       	call   105060 <outb>

	outb(IO_PIC2, 0x68);               /* OCW3 */
  101907:	c7 44 24 04 68 00 00 	movl   $0x68,0x4(%esp)
  10190e:	00 
  10190f:	c7 04 24 a0 00 00 00 	movl   $0xa0,(%esp)
  101916:	e8 45 37 00 00       	call   105060 <outb>
	outb(IO_PIC2, 0x0a);               /* OCW3 */
  10191b:	c7 44 24 04 0a 00 00 	movl   $0xa,0x4(%esp)
  101922:	00 
  101923:	c7 04 24 a0 00 00 00 	movl   $0xa0,(%esp)
  10192a:	e8 31 37 00 00       	call   105060 <outb>

	// mask all interrupts
	outb(IO_PIC1+1, 0xFF);
  10192f:	c7 44 24 04 ff 00 00 	movl   $0xff,0x4(%esp)
  101936:	00 
  101937:	c7 04 24 21 00 00 00 	movl   $0x21,(%esp)
  10193e:	e8 1d 37 00 00       	call   105060 <outb>
	outb(IO_PIC2+1, 0xFF);
  101943:	c7 44 24 04 ff 00 00 	movl   $0xff,0x4(%esp)
  10194a:	00 
  10194b:	c7 04 24 a1 00 00 00 	movl   $0xa1,(%esp)
  101952:	e8 09 37 00 00       	call   105060 <outb>
}
  101957:	83 c4 1c             	add    $0x1c,%esp
  10195a:	f3 c3                	repz ret 
  10195c:	8d 74 26 00          	lea    0x0(%esi,%eiz,1),%esi

00101960 <pic_setmask>:

void
pic_setmask(uint16_t mask)
{
  101960:	53                   	push   %ebx
  101961:	83 ec 18             	sub    $0x18,%esp
  101964:	8b 5c 24 20          	mov    0x20(%esp),%ebx
	irqmask = mask;
	outb(IO_PIC1+1, (char)mask);
  101968:	c7 04 24 21 00 00 00 	movl   $0x21,(%esp)
  10196f:	0f b6 c3             	movzbl %bl,%eax
  101972:	89 44 24 04          	mov    %eax,0x4(%esp)
}

void
pic_setmask(uint16_t mask)
{
	irqmask = mask;
  101976:	66 89 1d 06 03 11 00 	mov    %bx,0x110306
	outb(IO_PIC1+1, (char)mask);
	outb(IO_PIC2+1, (char)(mask >> 8));
  10197d:	0f b6 df             	movzbl %bh,%ebx

void
pic_setmask(uint16_t mask)
{
	irqmask = mask;
	outb(IO_PIC1+1, (char)mask);
  101980:	e8 db 36 00 00       	call   105060 <outb>
	outb(IO_PIC2+1, (char)(mask >> 8));
  101985:	89 5c 24 04          	mov    %ebx,0x4(%esp)
  101989:	c7 04 24 a1 00 00 00 	movl   $0xa1,(%esp)
  101990:	e8 cb 36 00 00       	call   105060 <outb>
}
  101995:	83 c4 18             	add    $0x18,%esp
  101998:	5b                   	pop    %ebx
  101999:	c3                   	ret    
  10199a:	8d b6 00 00 00 00    	lea    0x0(%esi),%esi

001019a0 <pic_enable>:

void
pic_enable(int irq)
{
	pic_setmask(irqmask & ~(1 << irq));
  1019a0:	8b 4c 24 04          	mov    0x4(%esp),%ecx
  1019a4:	b8 fe ff ff ff       	mov    $0xfffffffe,%eax
  1019a9:	d3 c0                	rol    %cl,%eax
  1019ab:	66 23 05 06 03 11 00 	and    0x110306,%ax
  1019b2:	0f b7 c0             	movzwl %ax,%eax
  1019b5:	89 44 24 04          	mov    %eax,0x4(%esp)
  1019b9:	eb a5                	jmp    101960 <pic_setmask>
  1019bb:	90                   	nop
  1019bc:	8d 74 26 00          	lea    0x0(%esi,%eiz,1),%esi

001019c0 <pic_eoi>:
}

void
pic_eoi(void)
{
  1019c0:	83 ec 1c             	sub    $0x1c,%esp
	// OCW2: rse00xxx
	//   r: rotate
	//   s: specific
	//   e: end-of-interrupt
	// xxx: specific interrupt line
	outb(IO_PIC1, 0x20);
  1019c3:	c7 44 24 04 20 00 00 	movl   $0x20,0x4(%esp)
  1019ca:	00 
  1019cb:	c7 04 24 20 00 00 00 	movl   $0x20,(%esp)
  1019d2:	e8 89 36 00 00       	call   105060 <outb>
	outb(IO_PIC2, 0x20);
  1019d7:	c7 44 24 04 20 00 00 	movl   $0x20,0x4(%esp)
  1019de:	00 
  1019df:	c7 04 24 a0 00 00 00 	movl   $0xa0,(%esp)
  1019e6:	e8 75 36 00 00       	call   105060 <outb>
}
  1019eb:	83 c4 1c             	add    $0x1c,%esp
  1019ee:	c3                   	ret    
  1019ef:	90                   	nop

001019f0 <pic_reset>:

void
pic_reset(void)
{
  1019f0:	83 ec 1c             	sub    $0x1c,%esp
	// mask all interrupts
	outb(IO_PIC1+1, 0x00);
  1019f3:	c7 44 24 04 00 00 00 	movl   $0x0,0x4(%esp)
  1019fa:	00 
  1019fb:	c7 04 24 21 00 00 00 	movl   $0x21,(%esp)
  101a02:	e8 59 36 00 00       	call   105060 <outb>
	outb(IO_PIC2+1, 0x00);
  101a07:	c7 44 24 04 00 00 00 	movl   $0x0,0x4(%esp)
  101a0e:	00 
  101a0f:	c7 04 24 a1 00 00 00 	movl   $0xa1,(%esp)
  101a16:	e8 45 36 00 00       	call   105060 <outb>

	// ICW1:  0001g0hi
	//    g:  0 = edge triggering, 1 = level triggering
	//    h:  0 = cascaded PICs, 1 = master only
	//    i:  0 = no ICW4, 1 = ICW4 required
	outb(IO_PIC1, 0x11);
  101a1b:	c7 44 24 04 11 00 00 	movl   $0x11,0x4(%esp)
  101a22:	00 
  101a23:	c7 04 24 20 00 00 00 	movl   $0x20,(%esp)
  101a2a:	e8 31 36 00 00       	call   105060 <outb>

	// ICW2:  Vector offset
	outb(IO_PIC1+1, T_IRQ0);
  101a2f:	c7 44 24 04 20 00 00 	movl   $0x20,0x4(%esp)
  101a36:	00 
  101a37:	c7 04 24 21 00 00 00 	movl   $0x21,(%esp)
  101a3e:	e8 1d 36 00 00       	call   105060 <outb>

	// ICW3:  bit mask of IR lines connected to slave PICs (master PIC),
	//        3-bit No of IR line at which slave connects to master(slave PIC).
	outb(IO_PIC1+1, 1<<IRQ_SLAVE);
  101a43:	c7 44 24 04 04 00 00 	movl   $0x4,0x4(%esp)
  101a4a:	00 
  101a4b:	c7 04 24 21 00 00 00 	movl   $0x21,(%esp)
  101a52:	e8 09 36 00 00       	call   105060 <outb>
	//    m:  0 = slave PIC, 1 = master PIC
	//	  (ignored when b is 0, as the master/slave role
	//	  can be hardwired).
	//    a:  1 = Automatic EOI mode
	//    p:  0 = MCS-80/85 mode, 1 = intel x86 mode
	outb(IO_PIC1+1, 0x3);
  101a57:	c7 44 24 04 03 00 00 	movl   $0x3,0x4(%esp)
  101a5e:	00 
  101a5f:	c7 04 24 21 00 00 00 	movl   $0x21,(%esp)
  101a66:	e8 f5 35 00 00       	call   105060 <outb>

	// Set up slave (8259A-2)
	outb(IO_PIC2, 0x11);			// ICW1
  101a6b:	c7 44 24 04 11 00 00 	movl   $0x11,0x4(%esp)
  101a72:	00 
  101a73:	c7 04 24 a0 00 00 00 	movl   $0xa0,(%esp)
  101a7a:	e8 e1 35 00 00       	call   105060 <outb>
	outb(IO_PIC2+1, T_IRQ0 + 8);		// ICW2
  101a7f:	c7 44 24 04 28 00 00 	movl   $0x28,0x4(%esp)
  101a86:	00 
  101a87:	c7 04 24 a1 00 00 00 	movl   $0xa1,(%esp)
  101a8e:	e8 cd 35 00 00       	call   105060 <outb>
	outb(IO_PIC2+1, IRQ_SLAVE);		// ICW3
  101a93:	c7 44 24 04 02 00 00 	movl   $0x2,0x4(%esp)
  101a9a:	00 
  101a9b:	c7 04 24 a1 00 00 00 	movl   $0xa1,(%esp)
  101aa2:	e8 b9 35 00 00       	call   105060 <outb>
	// NB Automatic EOI mode doesn't tend to work on the slave.
	// Linux source code says it's "to be investigated".
	outb(IO_PIC2+1, 0x01);			// ICW4
  101aa7:	c7 44 24 04 01 00 00 	movl   $0x1,0x4(%esp)
  101aae:	00 
  101aaf:	c7 04 24 a1 00 00 00 	movl   $0xa1,(%esp)
  101ab6:	e8 a5 35 00 00       	call   105060 <outb>

	// OCW3:  0ef01prs
	//   ef:  0x = NOP, 10 = clear specific mask, 11 = set specific mask
	//    p:  0 = no polling, 1 = polling mode
	//   rs:  0x = NOP, 10 = read IRR, 11 = read ISR
	outb(IO_PIC1, 0x68);             /* clear specific mask */
  101abb:	c7 44 24 04 68 00 00 	movl   $0x68,0x4(%esp)
  101ac2:	00 
  101ac3:	c7 04 24 20 00 00 00 	movl   $0x20,(%esp)
  101aca:	e8 91 35 00 00       	call   105060 <outb>
	outb(IO_PIC1, 0x0a);             /* read IRR by default */
  101acf:	c7 44 24 04 0a 00 00 	movl   $0xa,0x4(%esp)
  101ad6:	00 
  101ad7:	c7 04 24 20 00 00 00 	movl   $0x20,(%esp)
  101ade:	e8 7d 35 00 00       	call   105060 <outb>

	outb(IO_PIC2, 0x68);               /* OCW3 */
  101ae3:	c7 44 24 04 68 00 00 	movl   $0x68,0x4(%esp)
  101aea:	00 
  101aeb:	c7 04 24 a0 00 00 00 	movl   $0xa0,(%esp)
  101af2:	e8 69 35 00 00       	call   105060 <outb>
	outb(IO_PIC2, 0x0a);               /* OCW3 */
  101af7:	c7 44 24 04 0a 00 00 	movl   $0xa,0x4(%esp)
  101afe:	00 
  101aff:	c7 04 24 a0 00 00 00 	movl   $0xa0,(%esp)
  101b06:	e8 55 35 00 00       	call   105060 <outb>
}
  101b0b:	83 c4 1c             	add    $0x1c,%esp
  101b0e:	c3                   	ret    
  101b0f:	90                   	nop

00101b10 <timer_hw_init>:

// Initialize the programmable interval timer.

void
timer_hw_init(void)
{
  101b10:	83 ec 1c             	sub    $0x1c,%esp
	outb(PIT_CONTROL, TIMER_SEL0 | TIMER_RATEGEN | TIMER_16BIT);
  101b13:	c7 44 24 04 34 00 00 	movl   $0x34,0x4(%esp)
  101b1a:	00 
  101b1b:	c7 04 24 43 00 00 00 	movl   $0x43,(%esp)
  101b22:	e8 39 35 00 00       	call   105060 <outb>
	outb(PIT_CHANNEL0, LOW8(LATCH));
  101b27:	c7 44 24 04 9c 00 00 	movl   $0x9c,0x4(%esp)
  101b2e:	00 
  101b2f:	c7 04 24 40 00 00 00 	movl   $0x40,(%esp)
  101b36:	e8 25 35 00 00       	call   105060 <outb>
	outb(PIT_CHANNEL0, HIGH8(LATCH));
  101b3b:	c7 44 24 04 2e 00 00 	movl   $0x2e,0x4(%esp)
  101b42:	00 
  101b43:	c7 04 24 40 00 00 00 	movl   $0x40,(%esp)
  101b4a:	e8 11 35 00 00       	call   105060 <outb>
}
  101b4f:	83 c4 1c             	add    $0x1c,%esp
  101b52:	c3                   	ret    
  101b53:	66 90                	xchg   %ax,%ax
  101b55:	66 90                	xchg   %ax,%ax
  101b57:	66 90                	xchg   %ax,%ax
  101b59:	66 90                	xchg   %ax,%ax
  101b5b:	66 90                	xchg   %ax,%ax
  101b5d:	66 90                	xchg   %ax,%ax
  101b5f:	90                   	nop

00101b60 <tsc_init>:
	return delta / ms;
}

int
tsc_init(void)
{
  101b60:	55                   	push   %ebp
  101b61:	57                   	push   %edi
  101b62:	56                   	push   %esi
  101b63:	53                   	push   %ebx
  101b64:	83 ec 4c             	sub    $0x4c,%esp
	uint64_t ret;
	int i;

	timer_hw_init();
  101b67:	e8 a4 ff ff ff       	call   101b10 <timer_hw_init>

	tsc_per_ms = 0;
  101b6c:	c7 05 00 b8 9c 00 00 	movl   $0x0,0x9cb800
  101b73:	00 00 00 

	/*
	 * XXX: If TSC calibration fails frequently, try to increase the
	 *      upperbound of loop condition, e.g. alternating 3 to 10.
	 */
	for (i = 0; i < 10; i++) {
  101b76:	c7 44 24 34 00 00 00 	movl   $0x0,0x34(%esp)
  101b7d:	00 
	uint64_t ret;
	int i;

	timer_hw_init();

	tsc_per_ms = 0;
  101b7e:	c7 05 04 b8 9c 00 00 	movl   $0x0,0x9cb804
  101b85:	00 00 00 
{
	uint64_t tsc, t1, t2, delta, tscmin, tscmax;;
	int pitcnt;

	/* Set the Gate high, disable speaker */
	outb(0x61, (inb(0x61) & ~0x02) | 0x01);
  101b88:	c7 04 24 61 00 00 00 	movl   $0x61,(%esp)
	outb(0x42, latch & 0xff);
	outb(0x42, latch >> 8);

	tsc = t1 = t2 = rdtsc();

	pitcnt = 0;
  101b8f:	31 ff                	xor    %edi,%edi
	tscmax = 0;
  101b91:	31 ed                	xor    %ebp,%ebp
{
	uint64_t tsc, t1, t2, delta, tscmin, tscmax;;
	int pitcnt;

	/* Set the Gate high, disable speaker */
	outb(0x61, (inb(0x61) & ~0x02) | 0x01);
  101b93:	e8 98 34 00 00       	call   105030 <inb>
  101b98:	c7 04 24 61 00 00 00 	movl   $0x61,(%esp)
  101b9f:	25 fc 00 00 00       	and    $0xfc,%eax
  101ba4:	83 c8 01             	or     $0x1,%eax
  101ba7:	89 44 24 04          	mov    %eax,0x4(%esp)
  101bab:	e8 b0 34 00 00       	call   105060 <outb>
	/*
	 * Setup CTC channel 2 for mode 0, (interrupt on terminal
	 * count mode), binary count. Set the latch register to 50ms
	 * (LSB then MSB) to begin countdown.
	 */
	outb(0x43, 0xb0);
  101bb0:	c7 44 24 04 b0 00 00 	movl   $0xb0,0x4(%esp)
  101bb7:	00 
  101bb8:	c7 04 24 43 00 00 00 	movl   $0x43,(%esp)
  101bbf:	e8 9c 34 00 00       	call   105060 <outb>
	outb(0x42, latch & 0xff);
  101bc4:	c7 44 24 04 9b 00 00 	movl   $0x9b,0x4(%esp)
  101bcb:	00 
  101bcc:	c7 04 24 42 00 00 00 	movl   $0x42,(%esp)
  101bd3:	e8 88 34 00 00       	call   105060 <outb>
	outb(0x42, latch >> 8);
  101bd8:	c7 44 24 04 2e 00 00 	movl   $0x2e,0x4(%esp)
  101bdf:	00 
  101be0:	c7 04 24 42 00 00 00 	movl   $0x42,(%esp)
  101be7:	e8 74 34 00 00       	call   105060 <outb>

	tsc = t1 = t2 = rdtsc();
  101bec:	e8 6f 32 00 00       	call   104e60 <rdtsc>

	pitcnt = 0;
	tscmax = 0;
  101bf1:	c7 44 24 30 00 00 00 	movl   $0x0,0x30(%esp)
  101bf8:	00 
	tscmin = ~(uint64_t) 0x0;
  101bf9:	c7 44 24 2c ff ff ff 	movl   $0xffffffff,0x2c(%esp)
  101c00:	ff 
  101c01:	c7 44 24 24 ff ff ff 	movl   $0xffffffff,0x24(%esp)
  101c08:	ff 
	 */
	outb(0x43, 0xb0);
	outb(0x42, latch & 0xff);
	outb(0x42, latch >> 8);

	tsc = t1 = t2 = rdtsc();
  101c09:	89 c3                	mov    %eax,%ebx
  101c0b:	89 44 24 38          	mov    %eax,0x38(%esp)
  101c0f:	89 f8                	mov    %edi,%eax
  101c11:	89 de                	mov    %ebx,%esi
  101c13:	89 54 24 3c          	mov    %edx,0x3c(%esp)
  101c17:	89 d7                	mov    %edx,%edi
  101c19:	89 44 24 28          	mov    %eax,0x28(%esp)
  101c1d:	eb 43                	jmp    101c62 <tsc_init+0x102>
  101c1f:	90                   	nop

	pitcnt = 0;
	tscmax = 0;
	tscmin = ~(uint64_t) 0x0;
	while ((inb(0x61) & 0x20) == 0) {
		t2 = rdtsc();
  101c20:	e8 3b 32 00 00       	call   104e60 <rdtsc>
		delta = t2 - tsc;
  101c25:	89 c1                	mov    %eax,%ecx
  101c27:	89 d3                	mov    %edx,%ebx
  101c29:	29 f1                	sub    %esi,%ecx
  101c2b:	19 fb                	sbb    %edi,%ebx
  101c2d:	89 ce                	mov    %ecx,%esi
  101c2f:	39 5c 24 24          	cmp    %ebx,0x24(%esp)
  101c33:	89 df                	mov    %ebx,%edi
  101c35:	72 10                	jb     101c47 <tsc_init+0xe7>
  101c37:	77 06                	ja     101c3f <tsc_init+0xdf>
  101c39:	39 4c 24 2c          	cmp    %ecx,0x2c(%esp)
  101c3d:	76 08                	jbe    101c47 <tsc_init+0xe7>
  101c3f:	89 74 24 2c          	mov    %esi,0x2c(%esp)
  101c43:	89 7c 24 24          	mov    %edi,0x24(%esp)
  101c47:	39 fd                	cmp    %edi,%ebp
  101c49:	77 0e                	ja     101c59 <tsc_init+0xf9>
  101c4b:	72 06                	jb     101c53 <tsc_init+0xf3>
  101c4d:	39 74 24 30          	cmp    %esi,0x30(%esp)
  101c51:	73 06                	jae    101c59 <tsc_init+0xf9>
  101c53:	89 74 24 30          	mov    %esi,0x30(%esp)
  101c57:	89 fd                	mov    %edi,%ebp
		tsc = t2;
		if (delta < tscmin)
			tscmin = delta;
		if (delta > tscmax)
			tscmax = delta;
		pitcnt++;
  101c59:	83 44 24 28 01       	addl   $0x1,0x28(%esp)
	tscmax = 0;
	tscmin = ~(uint64_t) 0x0;
	while ((inb(0x61) & 0x20) == 0) {
		t2 = rdtsc();
		delta = t2 - tsc;
		tsc = t2;
  101c5e:	89 c6                	mov    %eax,%esi
  101c60:	89 d7                	mov    %edx,%edi
	tsc = t1 = t2 = rdtsc();

	pitcnt = 0;
	tscmax = 0;
	tscmin = ~(uint64_t) 0x0;
	while ((inb(0x61) & 0x20) == 0) {
  101c62:	c7 04 24 61 00 00 00 	movl   $0x61,(%esp)
  101c69:	e8 c2 33 00 00       	call   105030 <inb>
  101c6e:	a8 20                	test   $0x20,%al
  101c70:	74 ae                	je     101c20 <tsc_init+0xc0>
  101c72:	8b 44 24 28          	mov    0x28(%esp),%eax
  101c76:	89 f3                	mov    %esi,%ebx
  101c78:	89 fe                	mov    %edi,%esi
	 * times, then we have been hit by a massive SMI
	 *
	 * If the maximum is 10 times larger than the minimum,
	 * then we got hit by an SMI as well.
	 */
	KERN_DEBUG("pitcnt=%u, tscmin=%llu, tscmax=%llu\n",
  101c7a:	89 6c 24 1c          	mov    %ebp,0x1c(%esp)
  101c7e:	c7 44 24 08 10 b0 10 	movl   $0x10b010,0x8(%esp)
  101c85:	00 
  101c86:	c7 44 24 04 3a 00 00 	movl   $0x3a,0x4(%esp)
  101c8d:	00 
  101c8e:	89 c7                	mov    %eax,%edi
  101c90:	8b 44 24 30          	mov    0x30(%esp),%eax
  101c94:	89 7c 24 0c          	mov    %edi,0xc(%esp)
  101c98:	c7 04 24 35 b0 10 00 	movl   $0x10b035,(%esp)
  101c9f:	89 44 24 18          	mov    %eax,0x18(%esp)
  101ca3:	8b 44 24 2c          	mov    0x2c(%esp),%eax
  101ca7:	89 44 24 10          	mov    %eax,0x10(%esp)
  101cab:	8b 44 24 24          	mov    0x24(%esp),%eax
  101caf:	89 44 24 14          	mov    %eax,0x14(%esp)
  101cb3:	e8 78 24 00 00       	call   104130 <debug_normal>
		   pitcnt, tscmin, tscmax);
	if (pitcnt < loopmin || tscmax > 10 * tscmin)
  101cb8:	81 ff e7 03 00 00    	cmp    $0x3e7,%edi
  101cbe:	0f 8f 94 00 00 00    	jg     101d58 <tsc_init+0x1f8>
	 */
	for (i = 0; i < 10; i++) {
		ret = tsc_calibrate(CAL_LATCH, CAL_MS, CAL_PIT_LOOPS);
		if (ret != ~(uint64_t) 0x0)
			break;
		KERN_DEBUG("[%d] Retry to calibrate TSC.\n", i+1);
  101cc4:	83 44 24 34 01       	addl   $0x1,0x34(%esp)
  101cc9:	8b 7c 24 34          	mov    0x34(%esp),%edi
  101ccd:	c7 44 24 08 8c b0 10 	movl   $0x10b08c,0x8(%esp)
  101cd4:	00 
  101cd5:	c7 44 24 04 55 00 00 	movl   $0x55,0x4(%esp)
  101cdc:	00 
  101cdd:	c7 04 24 35 b0 10 00 	movl   $0x10b035,(%esp)
  101ce4:	89 7c 24 0c          	mov    %edi,0xc(%esp)
  101ce8:	e8 43 24 00 00       	call   104130 <debug_normal>

	/*
	 * XXX: If TSC calibration fails frequently, try to increase the
	 *      upperbound of loop condition, e.g. alternating 3 to 10.
	 */
	for (i = 0; i < 10; i++) {
  101ced:	83 ff 0a             	cmp    $0xa,%edi
  101cf0:	0f 85 92 fe ff ff    	jne    101b88 <tsc_init+0x28>
			break;
		KERN_DEBUG("[%d] Retry to calibrate TSC.\n", i+1);
	}

	if (ret == ~(uint64_t) 0x0) {
		KERN_DEBUG("TSC calibration failed.\n");
  101cf6:	c7 44 24 08 59 b0 10 	movl   $0x10b059,0x8(%esp)
  101cfd:	00 
  101cfe:	c7 44 24 04 59 00 00 	movl   $0x59,0x4(%esp)
  101d05:	00 
  101d06:	c7 04 24 35 b0 10 00 	movl   $0x10b035,(%esp)
  101d0d:	e8 1e 24 00 00       	call   104130 <debug_normal>
		KERN_DEBUG("Assume TSC freq = 1 GHz.\n");
  101d12:	c7 44 24 08 72 b0 10 	movl   $0x10b072,0x8(%esp)
  101d19:	00 
  101d1a:	c7 44 24 04 5a 00 00 	movl   $0x5a,0x4(%esp)
  101d21:	00 
  101d22:	c7 04 24 35 b0 10 00 	movl   $0x10b035,(%esp)
  101d29:	e8 02 24 00 00       	call   104130 <debug_normal>
		tsc_per_ms = 1000000;
  101d2e:	c7 05 00 b8 9c 00 40 	movl   $0xf4240,0x9cb800
  101d35:	42 0f 00 
  101d38:	c7 05 04 b8 9c 00 00 	movl   $0x0,0x9cb804
  101d3f:	00 00 00 

		timer_hw_init();
  101d42:	e8 c9 fd ff ff       	call   101b10 <timer_hw_init>
		KERN_DEBUG("TSC freq = %llu Hz.\n", tsc_per_ms*1000);

		timer_hw_init();
		return 0;
	}
}
  101d47:	83 c4 4c             	add    $0x4c,%esp
		KERN_DEBUG("TSC calibration failed.\n");
		KERN_DEBUG("Assume TSC freq = 1 GHz.\n");
		tsc_per_ms = 1000000;

		timer_hw_init();
		return 1;
  101d4a:	b8 01 00 00 00       	mov    $0x1,%eax
		KERN_DEBUG("TSC freq = %llu Hz.\n", tsc_per_ms*1000);

		timer_hw_init();
		return 0;
	}
}
  101d4f:	5b                   	pop    %ebx
  101d50:	5e                   	pop    %esi
  101d51:	5f                   	pop    %edi
  101d52:	5d                   	pop    %ebp
  101d53:	c3                   	ret    
  101d54:	8d 74 26 00          	lea    0x0(%esi,%eiz,1),%esi
	 * If the maximum is 10 times larger than the minimum,
	 * then we got hit by an SMI as well.
	 */
	KERN_DEBUG("pitcnt=%u, tscmin=%llu, tscmax=%llu\n",
		   pitcnt, tscmin, tscmax);
	if (pitcnt < loopmin || tscmax > 10 * tscmin)
  101d58:	6b 7c 24 24 0a       	imul   $0xa,0x24(%esp),%edi
  101d5d:	b8 0a 00 00 00       	mov    $0xa,%eax
  101d62:	f7 64 24 2c          	mull   0x2c(%esp)
  101d66:	01 fa                	add    %edi,%edx
  101d68:	39 d5                	cmp    %edx,%ebp
  101d6a:	0f 87 54 ff ff ff    	ja     101cc4 <tsc_init+0x164>
  101d70:	72 0a                	jb     101d7c <tsc_init+0x21c>
  101d72:	39 44 24 30          	cmp    %eax,0x30(%esp)
  101d76:	0f 87 48 ff ff ff    	ja     101cc4 <tsc_init+0x164>
		return ~(uint64_t) 0x0;

	/* Calculate the PIT value */
	delta = t2 - t1;
  101d7c:	89 d8                	mov    %ebx,%eax
  101d7e:	89 f2                	mov    %esi,%edx
  101d80:	2b 44 24 38          	sub    0x38(%esp),%eax
  101d84:	1b 54 24 3c          	sbb    0x3c(%esp),%edx
	return delta / ms;
  101d88:	c7 44 24 08 0a 00 00 	movl   $0xa,0x8(%esp)
  101d8f:	00 
  101d90:	c7 44 24 0c 00 00 00 	movl   $0x0,0xc(%esp)
  101d97:	00 
  101d98:	89 04 24             	mov    %eax,(%esp)
  101d9b:	89 54 24 04          	mov    %edx,0x4(%esp)
  101d9f:	e8 2c 8b 00 00       	call   10a8d0 <__udivdi3>

		timer_hw_init();
		return 1;
	} else {
		tsc_per_ms = ret;
		KERN_DEBUG("TSC freq = %llu Hz.\n", tsc_per_ms*1000);
  101da4:	c7 44 24 08 44 b0 10 	movl   $0x10b044,0x8(%esp)
  101dab:	00 
  101dac:	c7 44 24 04 61 00 00 	movl   $0x61,0x4(%esp)
  101db3:	00 
  101db4:	c7 04 24 35 b0 10 00 	movl   $0x10b035,(%esp)
		tsc_per_ms = 1000000;

		timer_hw_init();
		return 1;
	} else {
		tsc_per_ms = ret;
  101dbb:	a3 00 b8 9c 00       	mov    %eax,0x9cb800
  101dc0:	89 15 04 b8 9c 00    	mov    %edx,0x9cb804
		KERN_DEBUG("TSC freq = %llu Hz.\n", tsc_per_ms*1000);
  101dc6:	a1 00 b8 9c 00       	mov    0x9cb800,%eax
  101dcb:	8b 15 04 b8 9c 00    	mov    0x9cb804,%edx
  101dd1:	69 ca e8 03 00 00    	imul   $0x3e8,%edx,%ecx
  101dd7:	ba e8 03 00 00       	mov    $0x3e8,%edx
  101ddc:	f7 e2                	mul    %edx
  101dde:	01 ca                	add    %ecx,%edx
  101de0:	89 44 24 0c          	mov    %eax,0xc(%esp)
  101de4:	89 54 24 10          	mov    %edx,0x10(%esp)
  101de8:	e8 43 23 00 00       	call   104130 <debug_normal>

		timer_hw_init();
  101ded:	e8 1e fd ff ff       	call   101b10 <timer_hw_init>
		return 0;
	}
}
  101df2:	83 c4 4c             	add    $0x4c,%esp
	} else {
		tsc_per_ms = ret;
		KERN_DEBUG("TSC freq = %llu Hz.\n", tsc_per_ms*1000);

		timer_hw_init();
		return 0;
  101df5:	31 c0                	xor    %eax,%eax
	}
}
  101df7:	5b                   	pop    %ebx
  101df8:	5e                   	pop    %esi
  101df9:	5f                   	pop    %edi
  101dfa:	5d                   	pop    %ebp
  101dfb:	c3                   	ret    
  101dfc:	8d 74 26 00          	lea    0x0(%esi,%eiz,1),%esi

00101e00 <delay>:
/*
 * Wait for ms millisecond.
 */
void
delay(uint32_t ms)
{
  101e00:	57                   	push   %edi
  101e01:	56                   	push   %esi
  101e02:	53                   	push   %ebx
  101e03:	83 ec 10             	sub    $0x10,%esp
	volatile uint64_t ticks = tsc_per_ms * ms;
  101e06:	a1 00 b8 9c 00       	mov    0x9cb800,%eax
  101e0b:	8b 15 04 b8 9c 00    	mov    0x9cb804,%edx
/*
 * Wait for ms millisecond.
 */
void
delay(uint32_t ms)
{
  101e11:	8b 4c 24 20          	mov    0x20(%esp),%ecx
	volatile uint64_t ticks = tsc_per_ms * ms;
  101e15:	89 d3                	mov    %edx,%ebx
  101e17:	0f af d9             	imul   %ecx,%ebx
  101e1a:	f7 e1                	mul    %ecx
  101e1c:	01 da                	add    %ebx,%edx
  101e1e:	89 04 24             	mov    %eax,(%esp)
  101e21:	89 54 24 04          	mov    %edx,0x4(%esp)
	volatile uint64_t start = rdtsc();
  101e25:	e8 36 30 00 00       	call   104e60 <rdtsc>
  101e2a:	89 44 24 08          	mov    %eax,0x8(%esp)
  101e2e:	89 54 24 0c          	mov    %edx,0xc(%esp)
  101e32:	8d b6 00 00 00 00    	lea    0x0(%esi),%esi
	while (rdtsc() < start + ticks);
  101e38:	e8 23 30 00 00       	call   104e60 <rdtsc>
  101e3d:	8b 74 24 08          	mov    0x8(%esp),%esi
  101e41:	8b 7c 24 0c          	mov    0xc(%esp),%edi
  101e45:	8b 0c 24             	mov    (%esp),%ecx
  101e48:	8b 5c 24 04          	mov    0x4(%esp),%ebx
  101e4c:	01 f1                	add    %esi,%ecx
  101e4e:	11 fb                	adc    %edi,%ebx
  101e50:	39 da                	cmp    %ebx,%edx
  101e52:	76 0c                	jbe    101e60 <delay+0x60>
}
  101e54:	83 c4 10             	add    $0x10,%esp
  101e57:	5b                   	pop    %ebx
  101e58:	5e                   	pop    %esi
  101e59:	5f                   	pop    %edi
  101e5a:	c3                   	ret    
  101e5b:	90                   	nop
  101e5c:	8d 74 26 00          	lea    0x0(%esi,%eiz,1),%esi
void
delay(uint32_t ms)
{
	volatile uint64_t ticks = tsc_per_ms * ms;
	volatile uint64_t start = rdtsc();
	while (rdtsc() < start + ticks);
  101e60:	72 d6                	jb     101e38 <delay+0x38>
  101e62:	39 c8                	cmp    %ecx,%eax
  101e64:	72 d2                	jb     101e38 <delay+0x38>
}
  101e66:	83 c4 10             	add    $0x10,%esp
  101e69:	5b                   	pop    %ebx
  101e6a:	5e                   	pop    %esi
  101e6b:	5f                   	pop    %edi
  101e6c:	c3                   	ret    
  101e6d:	8d 76 00             	lea    0x0(%esi),%esi

00101e70 <udelay>:
/*
 * Wait for us microsecond.
 */
void
udelay(uint32_t us)
{
  101e70:	57                   	push   %edi
  101e71:	56                   	push   %esi
  101e72:	53                   	push   %ebx
  101e73:	83 ec 20             	sub    $0x20,%esp
    volatile uint64_t ticks = tsc_per_ms / 1000 * us;
  101e76:	8b 0d 00 b8 9c 00    	mov    0x9cb800,%ecx
  101e7c:	8b 1d 04 b8 9c 00    	mov    0x9cb804,%ebx
  101e82:	c7 44 24 08 e8 03 00 	movl   $0x3e8,0x8(%esp)
  101e89:	00 
/*
 * Wait for us microsecond.
 */
void
udelay(uint32_t us)
{
  101e8a:	8b 74 24 30          	mov    0x30(%esp),%esi
    volatile uint64_t ticks = tsc_per_ms / 1000 * us;
  101e8e:	c7 44 24 0c 00 00 00 	movl   $0x0,0xc(%esp)
  101e95:	00 
  101e96:	89 0c 24             	mov    %ecx,(%esp)
  101e99:	89 5c 24 04          	mov    %ebx,0x4(%esp)
  101e9d:	e8 2e 8a 00 00       	call   10a8d0 <__udivdi3>
  101ea2:	89 d1                	mov    %edx,%ecx
  101ea4:	0f af ce             	imul   %esi,%ecx
  101ea7:	f7 e6                	mul    %esi
  101ea9:	01 ca                	add    %ecx,%edx
  101eab:	89 44 24 10          	mov    %eax,0x10(%esp)
  101eaf:	89 54 24 14          	mov    %edx,0x14(%esp)
    volatile uint64_t start = rdtsc();
  101eb3:	e8 a8 2f 00 00       	call   104e60 <rdtsc>
  101eb8:	89 44 24 18          	mov    %eax,0x18(%esp)
  101ebc:	89 54 24 1c          	mov    %edx,0x1c(%esp)
    while (rdtsc() < start + ticks);
  101ec0:	e8 9b 2f 00 00       	call   104e60 <rdtsc>
  101ec5:	8b 74 24 18          	mov    0x18(%esp),%esi
  101ec9:	8b 7c 24 1c          	mov    0x1c(%esp),%edi
  101ecd:	8b 4c 24 10          	mov    0x10(%esp),%ecx
  101ed1:	8b 5c 24 14          	mov    0x14(%esp),%ebx
  101ed5:	01 f1                	add    %esi,%ecx
  101ed7:	11 fb                	adc    %edi,%ebx
  101ed9:	39 da                	cmp    %ebx,%edx
  101edb:	76 0b                	jbe    101ee8 <udelay+0x78>
}
  101edd:	83 c4 20             	add    $0x20,%esp
  101ee0:	5b                   	pop    %ebx
  101ee1:	5e                   	pop    %esi
  101ee2:	5f                   	pop    %edi
  101ee3:	c3                   	ret    
  101ee4:	8d 74 26 00          	lea    0x0(%esi,%eiz,1),%esi
void
udelay(uint32_t us)
{
    volatile uint64_t ticks = tsc_per_ms / 1000 * us;
    volatile uint64_t start = rdtsc();
    while (rdtsc() < start + ticks);
  101ee8:	72 d6                	jb     101ec0 <udelay+0x50>
  101eea:	39 c8                	cmp    %ecx,%eax
  101eec:	8d 74 26 00          	lea    0x0(%esi,%eiz,1),%esi
  101ef0:	72 ce                	jb     101ec0 <udelay+0x50>
}
  101ef2:	83 c4 20             	add    $0x20,%esp
  101ef5:	5b                   	pop    %ebx
  101ef6:	5e                   	pop    %esi
  101ef7:	5f                   	pop    %edi
  101ef8:	c3                   	ret    
  101ef9:	66 90                	xchg   %ax,%ax
  101efb:	66 90                	xchg   %ax,%ax
  101efd:	66 90                	xchg   %ax,%ax
  101eff:	90                   	nop

00101f00 <Xdivide>:
	jmp _alltraps

.text

/* exceptions  */
TRAPHANDLER_NOEC(Xdivide,	T_DIVIDE)
  101f00:	6a 00                	push   $0x0
  101f02:	6a 00                	push   $0x0
  101f04:	e9 17 01 00 00       	jmp    102020 <_alltraps>
  101f09:	90                   	nop

00101f0a <Xdebug>:
TRAPHANDLER_NOEC(Xdebug,	T_DEBUG)
  101f0a:	6a 00                	push   $0x0
  101f0c:	6a 01                	push   $0x1
  101f0e:	e9 0d 01 00 00       	jmp    102020 <_alltraps>
  101f13:	90                   	nop

00101f14 <Xnmi>:
TRAPHANDLER_NOEC(Xnmi,		T_NMI)
  101f14:	6a 00                	push   $0x0
  101f16:	6a 02                	push   $0x2
  101f18:	e9 03 01 00 00       	jmp    102020 <_alltraps>
  101f1d:	90                   	nop

00101f1e <Xbrkpt>:
TRAPHANDLER_NOEC(Xbrkpt,	T_BRKPT)
  101f1e:	6a 00                	push   $0x0
  101f20:	6a 03                	push   $0x3
  101f22:	e9 f9 00 00 00       	jmp    102020 <_alltraps>
  101f27:	90                   	nop

00101f28 <Xoflow>:
TRAPHANDLER_NOEC(Xoflow,	T_OFLOW)
  101f28:	6a 00                	push   $0x0
  101f2a:	6a 04                	push   $0x4
  101f2c:	e9 ef 00 00 00       	jmp    102020 <_alltraps>
  101f31:	90                   	nop

00101f32 <Xbound>:
TRAPHANDLER_NOEC(Xbound,	T_BOUND)
  101f32:	6a 00                	push   $0x0
  101f34:	6a 05                	push   $0x5
  101f36:	e9 e5 00 00 00       	jmp    102020 <_alltraps>
  101f3b:	90                   	nop

00101f3c <Xillop>:
TRAPHANDLER_NOEC(Xillop,	T_ILLOP)
  101f3c:	6a 00                	push   $0x0
  101f3e:	6a 06                	push   $0x6
  101f40:	e9 db 00 00 00       	jmp    102020 <_alltraps>
  101f45:	90                   	nop

00101f46 <Xdevice>:
TRAPHANDLER_NOEC(Xdevice,	T_DEVICE)
  101f46:	6a 00                	push   $0x0
  101f48:	6a 07                	push   $0x7
  101f4a:	e9 d1 00 00 00       	jmp    102020 <_alltraps>
  101f4f:	90                   	nop

00101f50 <Xdblflt>:
TRAPHANDLER     (Xdblflt,	T_DBLFLT)
  101f50:	6a 08                	push   $0x8
  101f52:	e9 c9 00 00 00       	jmp    102020 <_alltraps>
  101f57:	90                   	nop

00101f58 <Xcoproc>:
TRAPHANDLER_NOEC(Xcoproc,	T_COPROC)
  101f58:	6a 00                	push   $0x0
  101f5a:	6a 09                	push   $0x9
  101f5c:	e9 bf 00 00 00       	jmp    102020 <_alltraps>
  101f61:	90                   	nop

00101f62 <Xtss>:
TRAPHANDLER     (Xtss,		T_TSS)
  101f62:	6a 0a                	push   $0xa
  101f64:	e9 b7 00 00 00       	jmp    102020 <_alltraps>
  101f69:	90                   	nop

00101f6a <Xsegnp>:
TRAPHANDLER     (Xsegnp,	T_SEGNP)
  101f6a:	6a 0b                	push   $0xb
  101f6c:	e9 af 00 00 00       	jmp    102020 <_alltraps>
  101f71:	90                   	nop

00101f72 <Xstack>:
TRAPHANDLER     (Xstack,	T_STACK)
  101f72:	6a 0c                	push   $0xc
  101f74:	e9 a7 00 00 00       	jmp    102020 <_alltraps>
  101f79:	90                   	nop

00101f7a <Xgpflt>:
TRAPHANDLER     (Xgpflt,	T_GPFLT)
  101f7a:	6a 0d                	push   $0xd
  101f7c:	e9 9f 00 00 00       	jmp    102020 <_alltraps>
  101f81:	90                   	nop

00101f82 <Xpgflt>:
TRAPHANDLER     (Xpgflt,	T_PGFLT)
  101f82:	6a 0e                	push   $0xe
  101f84:	e9 97 00 00 00       	jmp    102020 <_alltraps>
  101f89:	90                   	nop

00101f8a <Xres>:
TRAPHANDLER_NOEC(Xres,		T_RES)
  101f8a:	6a 00                	push   $0x0
  101f8c:	6a 0f                	push   $0xf
  101f8e:	e9 8d 00 00 00       	jmp    102020 <_alltraps>
  101f93:	90                   	nop

00101f94 <Xfperr>:
TRAPHANDLER_NOEC(Xfperr,	T_FPERR)
  101f94:	6a 00                	push   $0x0
  101f96:	6a 10                	push   $0x10
  101f98:	e9 83 00 00 00       	jmp    102020 <_alltraps>
  101f9d:	90                   	nop

00101f9e <Xalign>:
TRAPHANDLER     (Xalign,	T_ALIGN)
  101f9e:	6a 11                	push   $0x11
  101fa0:	eb 7e                	jmp    102020 <_alltraps>

00101fa2 <Xmchk>:
TRAPHANDLER_NOEC(Xmchk,		T_MCHK)
  101fa2:	6a 00                	push   $0x0
  101fa4:	6a 12                	push   $0x12
  101fa6:	eb 78                	jmp    102020 <_alltraps>

00101fa8 <Xirq_timer>:

/* ISA interrupts  */
TRAPHANDLER_NOEC(Xirq_timer,	T_IRQ0 + IRQ_TIMER)
  101fa8:	6a 00                	push   $0x0
  101faa:	6a 20                	push   $0x20
  101fac:	eb 72                	jmp    102020 <_alltraps>

00101fae <Xirq_kbd>:
TRAPHANDLER_NOEC(Xirq_kbd,	T_IRQ0 + IRQ_KBD)
  101fae:	6a 00                	push   $0x0
  101fb0:	6a 21                	push   $0x21
  101fb2:	eb 6c                	jmp    102020 <_alltraps>

00101fb4 <Xirq_slave>:
TRAPHANDLER_NOEC(Xirq_slave,	T_IRQ0 + IRQ_SLAVE)
  101fb4:	6a 00                	push   $0x0
  101fb6:	6a 22                	push   $0x22
  101fb8:	eb 66                	jmp    102020 <_alltraps>

00101fba <Xirq_serial2>:
TRAPHANDLER_NOEC(Xirq_serial2,	T_IRQ0 + IRQ_SERIAL24)
  101fba:	6a 00                	push   $0x0
  101fbc:	6a 23                	push   $0x23
  101fbe:	eb 60                	jmp    102020 <_alltraps>

00101fc0 <Xirq_serial1>:
TRAPHANDLER_NOEC(Xirq_serial1,	T_IRQ0 + IRQ_SERIAL13)
  101fc0:	6a 00                	push   $0x0
  101fc2:	6a 24                	push   $0x24
  101fc4:	eb 5a                	jmp    102020 <_alltraps>

00101fc6 <Xirq_lpt>:
TRAPHANDLER_NOEC(Xirq_lpt,	T_IRQ0 + IRQ_LPT2)
  101fc6:	6a 00                	push   $0x0
  101fc8:	6a 25                	push   $0x25
  101fca:	eb 54                	jmp    102020 <_alltraps>

00101fcc <Xirq_floppy>:
TRAPHANDLER_NOEC(Xirq_floppy,	T_IRQ0 + IRQ_FLOPPY)
  101fcc:	6a 00                	push   $0x0
  101fce:	6a 26                	push   $0x26
  101fd0:	eb 4e                	jmp    102020 <_alltraps>

00101fd2 <Xirq_spurious>:
TRAPHANDLER_NOEC(Xirq_spurious,	T_IRQ0 + IRQ_SPURIOUS)
  101fd2:	6a 00                	push   $0x0
  101fd4:	6a 27                	push   $0x27
  101fd6:	eb 48                	jmp    102020 <_alltraps>

00101fd8 <Xirq_rtc>:
TRAPHANDLER_NOEC(Xirq_rtc,	T_IRQ0 + IRQ_RTC)
  101fd8:	6a 00                	push   $0x0
  101fda:	6a 28                	push   $0x28
  101fdc:	eb 42                	jmp    102020 <_alltraps>

00101fde <Xirq9>:
TRAPHANDLER_NOEC(Xirq9,		T_IRQ0 + 9)
  101fde:	6a 00                	push   $0x0
  101fe0:	6a 29                	push   $0x29
  101fe2:	eb 3c                	jmp    102020 <_alltraps>

00101fe4 <Xirq10>:
TRAPHANDLER_NOEC(Xirq10,	T_IRQ0 + 10)
  101fe4:	6a 00                	push   $0x0
  101fe6:	6a 2a                	push   $0x2a
  101fe8:	eb 36                	jmp    102020 <_alltraps>

00101fea <Xirq11>:
TRAPHANDLER_NOEC(Xirq11,	T_IRQ0 + 11)
  101fea:	6a 00                	push   $0x0
  101fec:	6a 2b                	push   $0x2b
  101fee:	eb 30                	jmp    102020 <_alltraps>

00101ff0 <Xirq_mouse>:
TRAPHANDLER_NOEC(Xirq_mouse,	T_IRQ0 + IRQ_MOUSE)
  101ff0:	6a 00                	push   $0x0
  101ff2:	6a 2c                	push   $0x2c
  101ff4:	eb 2a                	jmp    102020 <_alltraps>

00101ff6 <Xirq_coproc>:
TRAPHANDLER_NOEC(Xirq_coproc,	T_IRQ0 + IRQ_COPROCESSOR)
  101ff6:	6a 00                	push   $0x0
  101ff8:	6a 2d                	push   $0x2d
  101ffa:	eb 24                	jmp    102020 <_alltraps>

00101ffc <Xirq_ide1>:
TRAPHANDLER_NOEC(Xirq_ide1,	T_IRQ0 + IRQ_IDE1)
  101ffc:	6a 00                	push   $0x0
  101ffe:	6a 2e                	push   $0x2e
  102000:	eb 1e                	jmp    102020 <_alltraps>

00102002 <Xirq_ide2>:
TRAPHANDLER_NOEC(Xirq_ide2,	T_IRQ0 + IRQ_IDE2)
  102002:	6a 00                	push   $0x0
  102004:	6a 2f                	push   $0x2f
  102006:	eb 18                	jmp    102020 <_alltraps>

00102008 <Xsyscall>:

/* syscall */
TRAPHANDLER_NOEC(Xsyscall,	T_SYSCALL)
  102008:	6a 00                	push   $0x0
  10200a:	6a 30                	push   $0x30
  10200c:	eb 12                	jmp    102020 <_alltraps>

0010200e <Xdefault>:

/* default ? */
TRAPHANDLER     (Xdefault,	T_DEFAULT)
  10200e:	68 fe 00 00 00       	push   $0xfe
  102013:	eb 0b                	jmp    102020 <_alltraps>
  102015:	8d 74 26 00          	lea    0x0(%esi,%eiz,1),%esi
  102019:	8d bc 27 00 00 00 00 	lea    0x0(%edi,%eiz,1),%edi

00102020 <_alltraps>:

.globl	_alltraps
.type	_alltraps,@function
.p2align 4, 0x90		/* 16-byte alignment, nop filled */
_alltraps:
  cli			# make sure there is no nested trap
  102020:	fa                   	cli    

	cld
  102021:	fc                   	cld    

	pushl %ds		# build context
  102022:	1e                   	push   %ds
	pushl %es
  102023:	06                   	push   %es
	pushal
  102024:	60                   	pusha  

	movl $CPU_GDT_KDATA,%eax # load kernel's data segment
  102025:	b8 10 00 00 00       	mov    $0x10,%eax
	movw %ax,%ds
  10202a:	8e d8                	mov    %eax,%ds
	movw %ax,%es
  10202c:	8e c0                	mov    %eax,%es

	pushl %esp		# pass pointer to this trapframe
  10202e:	54                   	push   %esp
	call trap		# and call trap (does not return)
  10202f:	e8 dc 5d 00 00       	call   107e10 <trap>

1:	hlt			# should never get here; just spin...
  102034:	f4                   	hlt    
  102035:	8d 74 26 00          	lea    0x0(%esi,%eiz,1),%esi
  102039:	8d bc 27 00 00 00 00 	lea    0x0(%edi,%eiz,1),%edi

00102040 <trap_return>:
//
.globl	trap_return
.type	trap_return,@function
.p2align 4, 0x90		/* 16-byte alignment, nop filled */
trap_return:
	movl	4(%esp),%esp	// reset stack pointer to point to trap frame
  102040:	8b 64 24 04          	mov    0x4(%esp),%esp
	popal			// restore general-purpose registers except esp
  102044:	61                   	popa   
	popl	%es		// restore data segment registers
  102045:	07                   	pop    %es
	popl	%ds
  102046:	1f                   	pop    %ds
	addl	$8,%esp		// skip tf_trapno and tf_errcode
  102047:	83 c4 08             	add    $0x8,%esp
	iret			// return from trap handler
  10204a:	cf                   	iret   
  10204b:	66 90                	xchg   %ax,%ax
  10204d:	66 90                	xchg   %ax,%ax
  10204f:	90                   	nop

00102050 <acpi_probe_rsdp_aux>:
	return sum;
}

static acpi_rsdp_t *
acpi_probe_rsdp_aux(uint8_t *addr, int length)
{
  102050:	56                   	push   %esi
	uint8_t *e, *p;

	/* debug("Search %08x ~ %08x for RSDP\n", addr, addr+length); */
	e = addr + length;
  102051:	8d 34 10             	lea    (%eax,%edx,1),%esi
	for (p = addr; p < e; p += 16) {
  102054:	39 f0                	cmp    %esi,%eax
	return sum;
}

static acpi_rsdp_t *
acpi_probe_rsdp_aux(uint8_t *addr, int length)
{
  102056:	53                   	push   %ebx
	uint8_t *e, *p;

	/* debug("Search %08x ~ %08x for RSDP\n", addr, addr+length); */
	e = addr + length;
	for (p = addr; p < e; p += 16) {
  102057:	72 0e                	jb     102067 <acpi_probe_rsdp_aux+0x17>
  102059:	eb 3d                	jmp    102098 <acpi_probe_rsdp_aux+0x48>
  10205b:	90                   	nop
  10205c:	8d 74 26 00          	lea    0x0(%esi,%eiz,1),%esi
  102060:	83 c0 10             	add    $0x10,%eax
  102063:	39 c6                	cmp    %eax,%esi
  102065:	76 31                	jbe    102098 <acpi_probe_rsdp_aux+0x48>
		if (*(uint32_t *)p == ACPI_RSDP_SIG1 &&
  102067:	81 38 52 53 44 20    	cmpl   $0x20445352,(%eax)
  10206d:	75 f1                	jne    102060 <acpi_probe_rsdp_aux+0x10>
  10206f:	81 78 04 50 54 52 20 	cmpl   $0x20525450,0x4(%eax)
  102076:	75 e8                	jne    102060 <acpi_probe_rsdp_aux+0x10>
  102078:	31 d2                	xor    %edx,%edx
  10207a:	31 c9                	xor    %ecx,%ecx
  10207c:	8d 74 26 00          	lea    0x0(%esi,%eiz,1),%esi
	int i, sum;

	sum = 0;
	for (i = 0; i < len; i++) {

		sum += addr[i];
  102080:	0f b6 1c 08          	movzbl (%eax,%ecx,1),%ebx
sum(uint8_t * addr, int len)
{
	int i, sum;

	sum = 0;
	for (i = 0; i < len; i++) {
  102084:	83 c1 01             	add    $0x1,%ecx

		sum += addr[i];
  102087:	01 da                	add    %ebx,%edx
sum(uint8_t * addr, int len)
{
	int i, sum;

	sum = 0;
	for (i = 0; i < len; i++) {
  102089:	83 f9 24             	cmp    $0x24,%ecx
  10208c:	75 f2                	jne    102080 <acpi_probe_rsdp_aux+0x30>

	/* debug("Search %08x ~ %08x for RSDP\n", addr, addr+length); */
	e = addr + length;
	for (p = addr; p < e; p += 16) {
		if (*(uint32_t *)p == ACPI_RSDP_SIG1 &&
		    *(uint32_t *)(p + 4) == ACPI_RSDP_SIG2 &&
  10208e:	84 d2                	test   %dl,%dl
  102090:	75 ce                	jne    102060 <acpi_probe_rsdp_aux+0x10>
			return (acpi_rsdp_t *)p;
		}
	}

	return NULL;
}
  102092:	5b                   	pop    %ebx
  102093:	5e                   	pop    %esi
  102094:	c3                   	ret    
  102095:	8d 76 00             	lea    0x0(%esi),%esi
			/* debug("RSDP is at %08x\n", p); */
			return (acpi_rsdp_t *)p;
		}
	}

	return NULL;
  102098:	31 c0                	xor    %eax,%eax
}
  10209a:	5b                   	pop    %ebx
  10209b:	5e                   	pop    %esi
  10209c:	8d 74 26 00          	lea    0x0(%esi,%eiz,1),%esi
  1020a0:	c3                   	ret    
  1020a1:	eb 0d                	jmp    1020b0 <acpi_probe_rsdp>
  1020a3:	90                   	nop
  1020a4:	90                   	nop
  1020a5:	90                   	nop
  1020a6:	90                   	nop
  1020a7:	90                   	nop
  1020a8:	90                   	nop
  1020a9:	90                   	nop
  1020aa:	90                   	nop
  1020ab:	90                   	nop
  1020ac:	90                   	nop
  1020ad:	90                   	nop
  1020ae:	90                   	nop
  1020af:	90                   	nop

001020b0 <acpi_probe_rsdp>:
	uint8_t *bda;
	uint32_t p;
	acpi_rsdp_t *rsdp;

	bda = (uint8_t *) 0x400;
	if ((p = ((bda[0x0F] << 8) | bda[0x0E]) << 4)) {
  1020b0:	0f b6 05 0f 04 00 00 	movzbl 0x40f,%eax
  1020b7:	0f b6 15 0e 04 00 00 	movzbl 0x40e,%edx
  1020be:	c1 e0 08             	shl    $0x8,%eax
  1020c1:	09 d0                	or     %edx,%eax
  1020c3:	c1 e0 04             	shl    $0x4,%eax
  1020c6:	85 c0                	test   %eax,%eax
  1020c8:	74 16                	je     1020e0 <acpi_probe_rsdp+0x30>
		/* debug("Search RSDP from %08x\n", p); */
		if ((rsdp = acpi_probe_rsdp_aux((uint8_t *) p, 1024)))
  1020ca:	ba 00 04 00 00       	mov    $0x400,%edx
  1020cf:	e8 7c ff ff ff       	call   102050 <acpi_probe_rsdp_aux>
  1020d4:	85 c0                	test   %eax,%eax
  1020d6:	74 08                	je     1020e0 <acpi_probe_rsdp+0x30>
			return rsdp;
	}

	/* debug("Search RSDP from 0xE0000\n"); */
	return acpi_probe_rsdp_aux((uint8_t *) 0xE0000, 0x1FFFF);
}
  1020d8:	f3 c3                	repz ret 
  1020da:	8d b6 00 00 00 00    	lea    0x0(%esi),%esi
		if ((rsdp = acpi_probe_rsdp_aux((uint8_t *) p, 1024)))
			return rsdp;
	}

	/* debug("Search RSDP from 0xE0000\n"); */
	return acpi_probe_rsdp_aux((uint8_t *) 0xE0000, 0x1FFFF);
  1020e0:	ba ff ff 01 00       	mov    $0x1ffff,%edx
  1020e5:	b8 00 00 0e 00       	mov    $0xe0000,%eax
  1020ea:	e9 61 ff ff ff       	jmp    102050 <acpi_probe_rsdp_aux>
  1020ef:	90                   	nop

001020f0 <acpi_probe_rsdt>:
}

acpi_rsdt_t *
acpi_probe_rsdt(acpi_rsdp_t *rsdp)
{
  1020f0:	56                   	push   %esi
  1020f1:	53                   	push   %ebx
  1020f2:	83 ec 14             	sub    $0x14,%esp
  1020f5:	8b 5c 24 20          	mov    0x20(%esp),%ebx
	KERN_ASSERT(rsdp != NULL);
  1020f9:	85 db                	test   %ebx,%ebx
  1020fb:	74 40                	je     10213d <acpi_probe_rsdt+0x4d>

	acpi_rsdt_t *rsdt = (acpi_rsdt_t *)(rsdp->rsdt_addr);
  1020fd:	8b 73 10             	mov    0x10(%ebx),%esi
	/* KERN_DEBUG("rsdp->rsdt_addr = %08x\n", rsdt); */
	if (rsdt == NULL)
		return NULL;
  102100:	31 c0                	xor    %eax,%eax
{
	KERN_ASSERT(rsdp != NULL);

	acpi_rsdt_t *rsdt = (acpi_rsdt_t *)(rsdp->rsdt_addr);
	/* KERN_DEBUG("rsdp->rsdt_addr = %08x\n", rsdt); */
	if (rsdt == NULL)
  102102:	85 f6                	test   %esi,%esi
  102104:	74 2d                	je     102133 <acpi_probe_rsdt+0x43>
		return NULL;
	if (rsdt->sig == ACPI_RSDT_SIG &&
  102106:	81 3e 52 53 44 54    	cmpl   $0x54445352,(%esi)
  10210c:	75 25                	jne    102133 <acpi_probe_rsdt+0x43>
	    sum((uint8_t *)rsdt, rsdt->length) == 0) {
  10210e:	8b 5e 04             	mov    0x4(%esi),%ebx
sum(uint8_t * addr, int len)
{
	int i, sum;

	sum = 0;
	for (i = 0; i < len; i++) {
  102111:	85 db                	test   %ebx,%ebx
  102113:	7e 24                	jle    102139 <acpi_probe_rsdt+0x49>
  102115:	01 f3                	add    %esi,%ebx
  102117:	89 f0                	mov    %esi,%eax
static uint8_t
sum(uint8_t * addr, int len)
{
	int i, sum;

	sum = 0;
  102119:	31 d2                	xor    %edx,%edx
  10211b:	90                   	nop
  10211c:	8d 74 26 00          	lea    0x0(%esi,%eiz,1),%esi
	for (i = 0; i < len; i++) {

		sum += addr[i];
  102120:	0f b6 08             	movzbl (%eax),%ecx
  102123:	83 c0 01             	add    $0x1,%eax
  102126:	01 ca                	add    %ecx,%edx
sum(uint8_t * addr, int len)
{
	int i, sum;

	sum = 0;
	for (i = 0; i < len; i++) {
  102128:	39 d8                	cmp    %ebx,%eax
  10212a:	75 f4                	jne    102120 <acpi_probe_rsdt+0x30>
	KERN_ASSERT(rsdp != NULL);

	acpi_rsdt_t *rsdt = (acpi_rsdt_t *)(rsdp->rsdt_addr);
	/* KERN_DEBUG("rsdp->rsdt_addr = %08x\n", rsdt); */
	if (rsdt == NULL)
		return NULL;
  10212c:	31 c0                	xor    %eax,%eax
  10212e:	84 d2                	test   %dl,%dl
  102130:	0f 44 c6             	cmove  %esi,%eax
		/* debug("RSDT is at %08x\n", rsdt); */
		return rsdt;
	}

	return NULL;
}
  102133:	83 c4 14             	add    $0x14,%esp
  102136:	5b                   	pop    %ebx
  102137:	5e                   	pop    %esi
  102138:	c3                   	ret    
sum(uint8_t * addr, int len)
{
	int i, sum;

	sum = 0;
	for (i = 0; i < len; i++) {
  102139:	89 f0                	mov    %esi,%eax
  10213b:	eb f6                	jmp    102133 <acpi_probe_rsdt+0x43>
}

acpi_rsdt_t *
acpi_probe_rsdt(acpi_rsdp_t *rsdp)
{
	KERN_ASSERT(rsdp != NULL);
  10213d:	c7 44 24 0c aa b0 10 	movl   $0x10b0aa,0xc(%esp)
  102144:	00 
  102145:	c7 44 24 08 3f ae 10 	movl   $0x10ae3f,0x8(%esp)
  10214c:	00 
  10214d:	c7 44 24 04 3c 00 00 	movl   $0x3c,0x4(%esp)
  102154:	00 
  102155:	c7 04 24 b7 b0 10 00 	movl   $0x10b0b7,(%esp)
  10215c:	e8 1f 20 00 00       	call   104180 <debug_panic>
  102161:	eb 9a                	jmp    1020fd <acpi_probe_rsdt+0xd>
  102163:	8d b6 00 00 00 00    	lea    0x0(%esi),%esi
  102169:	8d bc 27 00 00 00 00 	lea    0x0(%edi,%eiz,1),%edi

00102170 <acpi_probe_rsdt_ent>:
	return NULL;
}

acpi_sdt_hdr_t *
acpi_probe_rsdt_ent(acpi_rsdt_t *rsdt, const uint32_t sig)
{
  102170:	55                   	push   %ebp
  102171:	57                   	push   %edi
  102172:	56                   	push   %esi
  102173:	53                   	push   %ebx
  102174:	83 ec 2c             	sub    $0x2c,%esp
  102177:	8b 5c 24 40          	mov    0x40(%esp),%ebx
  10217b:	8b 6c 24 44          	mov    0x44(%esp),%ebp
	KERN_ASSERT(rsdt != NULL);
  10217f:	85 db                	test   %ebx,%ebx
  102181:	74 67                	je     1021ea <acpi_probe_rsdt_ent+0x7a>

	uint8_t * p = (uint8_t *)(&rsdt->ent[0]),
		* e = (uint8_t *)rsdt + rsdt->length;
  102183:	8b 43 04             	mov    0x4(%ebx),%eax
  102186:	01 d8                	add    %ebx,%eax
  102188:	89 c7                	mov    %eax,%edi
  10218a:	89 44 24 1c          	mov    %eax,0x1c(%esp)
acpi_sdt_hdr_t *
acpi_probe_rsdt_ent(acpi_rsdt_t *rsdt, const uint32_t sig)
{
	KERN_ASSERT(rsdt != NULL);

	uint8_t * p = (uint8_t *)(&rsdt->ent[0]),
  10218e:	8d 43 24             	lea    0x24(%ebx),%eax
		* e = (uint8_t *)rsdt + rsdt->length;

	/* debug("RSDT->entry is at %08x\n", rsdt->ent); */

	int i;
	for (i = 0; p < e; i++) {
  102191:	39 c7                	cmp    %eax,%edi
  102193:	77 11                	ja     1021a6 <acpi_probe_rsdt_ent+0x36>
  102195:	eb 49                	jmp    1021e0 <acpi_probe_rsdt_ent+0x70>
  102197:	90                   	nop
  102198:	8d 43 04             	lea    0x4(%ebx),%eax
  10219b:	83 c3 28             	add    $0x28,%ebx
  10219e:	39 5c 24 1c          	cmp    %ebx,0x1c(%esp)
  1021a2:	76 3c                	jbe    1021e0 <acpi_probe_rsdt_ent+0x70>
  1021a4:	89 c3                	mov    %eax,%ebx
		acpi_sdt_hdr_t *hdr = (acpi_sdt_hdr_t *)(rsdt->ent[i]);
  1021a6:	8b 7b 24             	mov    0x24(%ebx),%edi
		/* debug("RSDT entry (%08x): addr = %08x, sig = %08x, length = %x\n", &rsdt->ent[i], hdr, hdr->sig, hdr->length); */
		if (hdr->sig == sig &&
  1021a9:	39 2f                	cmp    %ebp,(%edi)
  1021ab:	75 eb                	jne    102198 <acpi_probe_rsdt_ent+0x28>
		    sum((uint8_t *)hdr, hdr->length) == 0) {
  1021ad:	8b 77 04             	mov    0x4(%edi),%esi
sum(uint8_t * addr, int len)
{
	int i, sum;

	sum = 0;
	for (i = 0; i < len; i++) {
  1021b0:	85 f6                	test   %esi,%esi
  1021b2:	7e 1c                	jle    1021d0 <acpi_probe_rsdt_ent+0x60>
  1021b4:	01 fe                	add    %edi,%esi
  1021b6:	89 f8                	mov    %edi,%eax
static uint8_t
sum(uint8_t * addr, int len)
{
	int i, sum;

	sum = 0;
  1021b8:	31 d2                	xor    %edx,%edx
  1021ba:	8d b6 00 00 00 00    	lea    0x0(%esi),%esi
	for (i = 0; i < len; i++) {

		sum += addr[i];
  1021c0:	0f b6 08             	movzbl (%eax),%ecx
  1021c3:	83 c0 01             	add    $0x1,%eax
  1021c6:	01 ca                	add    %ecx,%edx
sum(uint8_t * addr, int len)
{
	int i, sum;

	sum = 0;
	for (i = 0; i < len; i++) {
  1021c8:	39 f0                	cmp    %esi,%eax
  1021ca:	75 f4                	jne    1021c0 <acpi_probe_rsdt_ent+0x50>

	int i;
	for (i = 0; p < e; i++) {
		acpi_sdt_hdr_t *hdr = (acpi_sdt_hdr_t *)(rsdt->ent[i]);
		/* debug("RSDT entry (%08x): addr = %08x, sig = %08x, length = %x\n", &rsdt->ent[i], hdr, hdr->sig, hdr->length); */
		if (hdr->sig == sig &&
  1021cc:	84 d2                	test   %dl,%dl
  1021ce:	75 c8                	jne    102198 <acpi_probe_rsdt_ent+0x28>
		}
		p = (uint8_t *)(&rsdt->ent[i+1]);
	}

	return NULL;
}
  1021d0:	83 c4 2c             	add    $0x2c,%esp

	/* debug("RSDT->entry is at %08x\n", rsdt->ent); */

	int i;
	for (i = 0; p < e; i++) {
		acpi_sdt_hdr_t *hdr = (acpi_sdt_hdr_t *)(rsdt->ent[i]);
  1021d3:	89 f8                	mov    %edi,%eax
		}
		p = (uint8_t *)(&rsdt->ent[i+1]);
	}

	return NULL;
}
  1021d5:	5b                   	pop    %ebx
  1021d6:	5e                   	pop    %esi
  1021d7:	5f                   	pop    %edi
  1021d8:	5d                   	pop    %ebp
  1021d9:	c3                   	ret    
  1021da:	8d b6 00 00 00 00    	lea    0x0(%esi),%esi
  1021e0:	83 c4 2c             	add    $0x2c,%esp
			return hdr;
		}
		p = (uint8_t *)(&rsdt->ent[i+1]);
	}

	return NULL;
  1021e3:	31 c0                	xor    %eax,%eax
}
  1021e5:	5b                   	pop    %ebx
  1021e6:	5e                   	pop    %esi
  1021e7:	5f                   	pop    %edi
  1021e8:	5d                   	pop    %ebp
  1021e9:	c3                   	ret    
}

acpi_sdt_hdr_t *
acpi_probe_rsdt_ent(acpi_rsdt_t *rsdt, const uint32_t sig)
{
	KERN_ASSERT(rsdt != NULL);
  1021ea:	c7 44 24 0c c7 b0 10 	movl   $0x10b0c7,0xc(%esp)
  1021f1:	00 
  1021f2:	c7 44 24 08 3f ae 10 	movl   $0x10ae3f,0x8(%esp)
  1021f9:	00 
  1021fa:	c7 44 24 04 4e 00 00 	movl   $0x4e,0x4(%esp)
  102201:	00 
  102202:	c7 04 24 b7 b0 10 00 	movl   $0x10b0b7,(%esp)
  102209:	e8 72 1f 00 00       	call   104180 <debug_panic>
  10220e:	e9 70 ff ff ff       	jmp    102183 <acpi_probe_rsdt_ent+0x13>
  102213:	8d b6 00 00 00 00    	lea    0x0(%esi),%esi
  102219:	8d bc 27 00 00 00 00 	lea    0x0(%edi,%eiz,1),%edi

00102220 <acpi_probe_xsdt>:
	return NULL;
}

acpi_xsdt_t *
acpi_probe_xsdt(acpi_rsdp_t *rsdp)
{
  102220:	56                   	push   %esi
  102221:	53                   	push   %ebx
  102222:	83 ec 14             	sub    $0x14,%esp
  102225:	8b 5c 24 20          	mov    0x20(%esp),%ebx
	KERN_ASSERT(rsdp != NULL);
  102229:	85 db                	test   %ebx,%ebx
  10222b:	74 39                	je     102266 <acpi_probe_xsdt+0x46>

	acpi_xsdt_t *xsdt  = (acpi_xsdt_t *)(uintptr_t) rsdp->xsdt_addr;
  10222d:	8b 5b 18             	mov    0x18(%ebx),%ebx
	/* debug("rsdp->xsdt_addr = %08x\n", xsdt); */
	if (xsdt == NULL)
		return NULL;
  102230:	31 c0                	xor    %eax,%eax
{
	KERN_ASSERT(rsdp != NULL);

	acpi_xsdt_t *xsdt  = (acpi_xsdt_t *)(uintptr_t) rsdp->xsdt_addr;
	/* debug("rsdp->xsdt_addr = %08x\n", xsdt); */
	if (xsdt == NULL)
  102232:	85 db                	test   %ebx,%ebx
  102234:	74 26                	je     10225c <acpi_probe_xsdt+0x3c>
		return NULL;
	if (xsdt->sig == ACPI_XSDT_SIG &&
  102236:	81 3b 58 53 44 54    	cmpl   $0x54445358,(%ebx)
  10223c:	75 1e                	jne    10225c <acpi_probe_xsdt+0x3c>
	    sum((uint8_t *)xsdt, xsdt->length) == 0) {
  10223e:	8b 73 04             	mov    0x4(%ebx),%esi
sum(uint8_t * addr, int len)
{
	int i, sum;

	sum = 0;
	for (i = 0; i < len; i++) {
  102241:	85 f6                	test   %esi,%esi
  102243:	7e 1d                	jle    102262 <acpi_probe_xsdt+0x42>
static uint8_t
sum(uint8_t * addr, int len)
{
	int i, sum;

	sum = 0;
  102245:	31 d2                	xor    %edx,%edx
  102247:	90                   	nop
	for (i = 0; i < len; i++) {

		sum += addr[i];
  102248:	0f b6 0c 18          	movzbl (%eax,%ebx,1),%ecx
sum(uint8_t * addr, int len)
{
	int i, sum;

	sum = 0;
	for (i = 0; i < len; i++) {
  10224c:	83 c0 01             	add    $0x1,%eax

		sum += addr[i];
  10224f:	01 ca                	add    %ecx,%edx
sum(uint8_t * addr, int len)
{
	int i, sum;

	sum = 0;
	for (i = 0; i < len; i++) {
  102251:	39 c6                	cmp    %eax,%esi
  102253:	75 f3                	jne    102248 <acpi_probe_xsdt+0x28>
	KERN_ASSERT(rsdp != NULL);

	acpi_xsdt_t *xsdt  = (acpi_xsdt_t *)(uintptr_t) rsdp->xsdt_addr;
	/* debug("rsdp->xsdt_addr = %08x\n", xsdt); */
	if (xsdt == NULL)
		return NULL;
  102255:	31 c0                	xor    %eax,%eax
  102257:	84 d2                	test   %dl,%dl
  102259:	0f 44 c3             	cmove  %ebx,%eax
		/* debug("XSDT is at %08x\n", xsdt); */
		return xsdt;
	}

	return NULL;
}
  10225c:	83 c4 14             	add    $0x14,%esp
  10225f:	5b                   	pop    %ebx
  102260:	5e                   	pop    %esi
  102261:	c3                   	ret    
sum(uint8_t * addr, int len)
{
	int i, sum;

	sum = 0;
	for (i = 0; i < len; i++) {
  102262:	89 d8                	mov    %ebx,%eax
  102264:	eb f6                	jmp    10225c <acpi_probe_xsdt+0x3c>
}

acpi_xsdt_t *
acpi_probe_xsdt(acpi_rsdp_t *rsdp)
{
	KERN_ASSERT(rsdp != NULL);
  102266:	c7 44 24 0c aa b0 10 	movl   $0x10b0aa,0xc(%esp)
  10226d:	00 
  10226e:	c7 44 24 08 3f ae 10 	movl   $0x10ae3f,0x8(%esp)
  102275:	00 
  102276:	c7 44 24 04 66 00 00 	movl   $0x66,0x4(%esp)
  10227d:	00 
  10227e:	c7 04 24 b7 b0 10 00 	movl   $0x10b0b7,(%esp)
  102285:	e8 f6 1e 00 00       	call   104180 <debug_panic>
  10228a:	eb a1                	jmp    10222d <acpi_probe_xsdt+0xd>
  10228c:	8d 74 26 00          	lea    0x0(%esi,%eiz,1),%esi

00102290 <acpi_probe_xsdt_ent>:
	return NULL;
}

acpi_sdt_hdr_t *
acpi_probe_xsdt_ent(acpi_xsdt_t *xsdt, const uint32_t sig)
{
  102290:	55                   	push   %ebp
  102291:	57                   	push   %edi
  102292:	56                   	push   %esi
  102293:	53                   	push   %ebx
  102294:	83 ec 2c             	sub    $0x2c,%esp
  102297:	8b 74 24 40          	mov    0x40(%esp),%esi
  10229b:	8b 6c 24 44          	mov    0x44(%esp),%ebp
	KERN_ASSERT(xsdt != NULL);
  10229f:	85 f6                	test   %esi,%esi
  1022a1:	74 5f                	je     102302 <acpi_probe_xsdt_ent+0x72>

	uint8_t * p = (uint8_t *)(&xsdt->ent[0]),
		* e = (uint8_t *)xsdt + xsdt->length;
  1022a3:	8b 46 04             	mov    0x4(%esi),%eax
  1022a6:	01 f0                	add    %esi,%eax
  1022a8:	89 c7                	mov    %eax,%edi
  1022aa:	89 44 24 1c          	mov    %eax,0x1c(%esp)
acpi_sdt_hdr_t *
acpi_probe_xsdt_ent(acpi_xsdt_t *xsdt, const uint32_t sig)
{
	KERN_ASSERT(xsdt != NULL);

	uint8_t * p = (uint8_t *)(&xsdt->ent[0]),
  1022ae:	8d 46 24             	lea    0x24(%esi),%eax
		* e = (uint8_t *)xsdt + xsdt->length;

	int i;
	for (i = 0; p < e; i++) {
  1022b1:	39 c7                	cmp    %eax,%edi
  1022b3:	77 11                	ja     1022c6 <acpi_probe_xsdt_ent+0x36>
  1022b5:	eb 41                	jmp    1022f8 <acpi_probe_xsdt_ent+0x68>
  1022b7:	90                   	nop
  1022b8:	8d 46 08             	lea    0x8(%esi),%eax
  1022bb:	83 c6 2c             	add    $0x2c,%esi
  1022be:	39 74 24 1c          	cmp    %esi,0x1c(%esp)
  1022c2:	76 34                	jbe    1022f8 <acpi_probe_xsdt_ent+0x68>
  1022c4:	89 c6                	mov    %eax,%esi
		acpi_sdt_hdr_t *hdr =
			(acpi_sdt_hdr_t *)(uintptr_t) (xsdt->ent[i]);
  1022c6:	8b 5e 24             	mov    0x24(%esi),%ebx
		/* debug("probe XSDT entry %d at %08x\n", i, hdr); */
		if (hdr->sig == sig &&
  1022c9:	39 2b                	cmp    %ebp,(%ebx)
  1022cb:	75 eb                	jne    1022b8 <acpi_probe_xsdt_ent+0x28>
		    sum((uint8_t *)hdr, hdr->length) == 0) {
  1022cd:	8b 7b 04             	mov    0x4(%ebx),%edi
sum(uint8_t * addr, int len)
{
	int i, sum;

	sum = 0;
	for (i = 0; i < len; i++) {
  1022d0:	85 ff                	test   %edi,%edi
  1022d2:	7e 15                	jle    1022e9 <acpi_probe_xsdt_ent+0x59>
static uint8_t
sum(uint8_t * addr, int len)
{
	int i, sum;

	sum = 0;
  1022d4:	31 d2                	xor    %edx,%edx
	for (i = 0; i < len; i++) {
  1022d6:	31 c0                	xor    %eax,%eax

		sum += addr[i];
  1022d8:	0f b6 0c 18          	movzbl (%eax,%ebx,1),%ecx
sum(uint8_t * addr, int len)
{
	int i, sum;

	sum = 0;
	for (i = 0; i < len; i++) {
  1022dc:	83 c0 01             	add    $0x1,%eax

		sum += addr[i];
  1022df:	01 ca                	add    %ecx,%edx
sum(uint8_t * addr, int len)
{
	int i, sum;

	sum = 0;
	for (i = 0; i < len; i++) {
  1022e1:	39 c7                	cmp    %eax,%edi
  1022e3:	75 f3                	jne    1022d8 <acpi_probe_xsdt_ent+0x48>
	int i;
	for (i = 0; p < e; i++) {
		acpi_sdt_hdr_t *hdr =
			(acpi_sdt_hdr_t *)(uintptr_t) (xsdt->ent[i]);
		/* debug("probe XSDT entry %d at %08x\n", i, hdr); */
		if (hdr->sig == sig &&
  1022e5:	84 d2                	test   %dl,%dl
  1022e7:	75 cf                	jne    1022b8 <acpi_probe_xsdt_ent+0x28>
		}
		p = (uint8_t *)(&xsdt->ent[i+1]);
	}

	return NULL;
}
  1022e9:	83 c4 2c             	add    $0x2c,%esp
	uint8_t * p = (uint8_t *)(&xsdt->ent[0]),
		* e = (uint8_t *)xsdt + xsdt->length;

	int i;
	for (i = 0; p < e; i++) {
		acpi_sdt_hdr_t *hdr =
  1022ec:	89 d8                	mov    %ebx,%eax
		}
		p = (uint8_t *)(&xsdt->ent[i+1]);
	}

	return NULL;
}
  1022ee:	5b                   	pop    %ebx
  1022ef:	5e                   	pop    %esi
  1022f0:	5f                   	pop    %edi
  1022f1:	5d                   	pop    %ebp
  1022f2:	c3                   	ret    
  1022f3:	90                   	nop
  1022f4:	8d 74 26 00          	lea    0x0(%esi,%eiz,1),%esi
  1022f8:	83 c4 2c             	add    $0x2c,%esp
			return hdr;
		}
		p = (uint8_t *)(&xsdt->ent[i+1]);
	}

	return NULL;
  1022fb:	31 c0                	xor    %eax,%eax
}
  1022fd:	5b                   	pop    %ebx
  1022fe:	5e                   	pop    %esi
  1022ff:	5f                   	pop    %edi
  102300:	5d                   	pop    %ebp
  102301:	c3                   	ret    
}

acpi_sdt_hdr_t *
acpi_probe_xsdt_ent(acpi_xsdt_t *xsdt, const uint32_t sig)
{
	KERN_ASSERT(xsdt != NULL);
  102302:	c7 44 24 0c d4 b0 10 	movl   $0x10b0d4,0xc(%esp)
  102309:	00 
  10230a:	c7 44 24 08 3f ae 10 	movl   $0x10ae3f,0x8(%esp)
  102311:	00 
  102312:	c7 44 24 04 78 00 00 	movl   $0x78,0x4(%esp)
  102319:	00 
  10231a:	c7 04 24 b7 b0 10 00 	movl   $0x10b0b7,(%esp)
  102321:	e8 5a 1e 00 00       	call   104180 <debug_panic>
  102326:	e9 78 ff ff ff       	jmp    1022a3 <acpi_probe_xsdt_ent+0x13>
  10232b:	66 90                	xchg   %ax,%ax
  10232d:	66 90                	xchg   %ax,%ax
  10232f:	90                   	nop

00102330 <lapic_register>:
}

void
lapic_register(uintptr_t lapic_addr)
{
	lapic = (lapic_t *) lapic_addr;
  102330:	8b 44 24 04          	mov    0x4(%esp),%eax
  102334:	a3 08 b8 9c 00       	mov    %eax,0x9cb808
  102339:	c3                   	ret    
  10233a:	8d b6 00 00 00 00    	lea    0x0(%esi),%esi

00102340 <lapic_init>:
/*
 * Initialize local APIC.
 */
void
lapic_init()
{
  102340:	55                   	push   %ebp
  102341:	57                   	push   %edi
  102342:	56                   	push   %esi
  102343:	53                   	push   %ebx
  102344:	83 ec 2c             	sub    $0x2c,%esp
	if (!lapic)
  102347:	a1 08 b8 9c 00       	mov    0x9cb808,%eax
  10234c:	85 c0                	test   %eax,%eax
  10234e:	0f 84 b4 02 00 00    	je     102608 <lapic_init+0x2c8>

/* Write value to the index'th local APIC register. */
static void
lapic_write(int index, int value)
{
	lapic[index] = value;
  102354:	c7 80 f0 00 00 00 27 	movl   $0x127,0xf0(%eax)
  10235b:	01 00 00 
	/* wait for the finish of writing */
	lapic[LAPIC_ID];
  10235e:	8b 50 20             	mov    0x20(%eax),%edx

/* Write value to the index'th local APIC register. */
static void
lapic_write(int index, int value)
{
	lapic[index] = value;
  102361:	c7 80 e0 03 00 00 0b 	movl   $0xb,0x3e0(%eax)
  102368:	00 00 00 
	/* wait for the finish of writing */
	lapic[LAPIC_ID];
  10236b:	8b 50 20             	mov    0x20(%eax),%edx

/* Write value to the index'th local APIC register. */
static void
lapic_write(int index, int value)
{
	lapic[index] = value;
  10236e:	c7 80 20 03 00 00 20 	movl   $0x20020,0x320(%eax)
  102375:	00 02 00 
	/* wait for the finish of writing */
	lapic[LAPIC_ID];
  102378:	8b 50 20             	mov    0x20(%eax),%edx
	 * Calibrate the internal timer of LAPIC using TSC.
	 * XXX: TSC should be already calibrated before here.
	 */
	uint32_t lapic_ticks_per_ms;
	int i;
	for (i = 0; i < 5; i++) {
  10237b:	c7 44 24 18 00 00 00 	movl   $0x0,0x18(%esp)
  102382:	00 

/* Write value to the index'th local APIC register. */
static void
lapic_write(int index, int value)
{
	lapic[index] = value;
  102383:	c7 80 80 03 00 00 ff 	movl   $0xffffffff,0x380(%eax)
  10238a:	ff ff ff 
	/* wait for the finish of writing */
	lapic[LAPIC_ID];
  10238d:	8b 40 20             	mov    0x20(%eax),%eax
	outb(0x42, latch & 0xff);
	outb(0x42, latch >> 8);

	timer = timer1 = timer2 = lapic_read(LAPIC_TCCR);

	pitcnt = 0;
  102390:	31 db                	xor    %ebx,%ebx
	int pitcnt;

	lapic_write(LAPIC_TICR, ~(uint32_t) 0x0);

	/* Set the Gate high, disable speaker */
	outb(0x61, (inb(0x61) & ~0x02) | 0x01);
  102392:	c7 04 24 61 00 00 00 	movl   $0x61,(%esp)
	outb(0x42, latch >> 8);

	timer = timer1 = timer2 = lapic_read(LAPIC_TCCR);

	pitcnt = 0;
	timermax = 0;
  102399:	31 ed                	xor    %ebp,%ebp
	timermin = ~(uint32_t) 0x0;
  10239b:	bf ff ff ff ff       	mov    $0xffffffff,%edi
	int pitcnt;

	lapic_write(LAPIC_TICR, ~(uint32_t) 0x0);

	/* Set the Gate high, disable speaker */
	outb(0x61, (inb(0x61) & ~0x02) | 0x01);
  1023a0:	e8 8b 2c 00 00       	call   105030 <inb>
  1023a5:	c7 04 24 61 00 00 00 	movl   $0x61,(%esp)
  1023ac:	25 fc 00 00 00       	and    $0xfc,%eax
  1023b1:	83 c8 01             	or     $0x1,%eax
  1023b4:	89 44 24 04          	mov    %eax,0x4(%esp)
  1023b8:	e8 a3 2c 00 00       	call   105060 <outb>
	/*
	 * Setup CTC channel 2* for mode 0, (interrupt on terminal
	 * count mode), binary count. Set the latch register to 50ms
	 * (LSB then MSB) to begin countdown.
	 */
	outb(0x43, 0xb0);
  1023bd:	c7 44 24 04 b0 00 00 	movl   $0xb0,0x4(%esp)
  1023c4:	00 
  1023c5:	c7 04 24 43 00 00 00 	movl   $0x43,(%esp)
  1023cc:	e8 8f 2c 00 00       	call   105060 <outb>
	outb(0x42, latch & 0xff);
  1023d1:	c7 44 24 04 9b 00 00 	movl   $0x9b,0x4(%esp)
  1023d8:	00 
  1023d9:	c7 04 24 42 00 00 00 	movl   $0x42,(%esp)
  1023e0:	e8 7b 2c 00 00       	call   105060 <outb>
	outb(0x42, latch >> 8);
  1023e5:	c7 44 24 04 2e 00 00 	movl   $0x2e,0x4(%esp)
  1023ec:	00 
  1023ed:	c7 04 24 42 00 00 00 	movl   $0x42,(%esp)
  1023f4:	e8 67 2c 00 00       	call   105060 <outb>
 * Read the index'th local APIC register.
 */
static uint32_t
lapic_read(int index)
{
	return lapic[index];
  1023f9:	a1 08 b8 9c 00       	mov    0x9cb808,%eax
  1023fe:	8b 80 90 03 00 00    	mov    0x390(%eax),%eax
  102404:	89 44 24 1c          	mov    %eax,0x1c(%esp)
  102408:	89 c6                	mov    %eax,%esi
  10240a:	eb 20                	jmp    10242c <lapic_init+0xec>
  10240c:	8d 74 26 00          	lea    0x0(%esi,%eiz,1),%esi
  102410:	a1 08 b8 9c 00       	mov    0x9cb808,%eax
  102415:	8b 80 90 03 00 00    	mov    0x390(%eax),%eax
	pitcnt = 0;
	timermax = 0;
	timermin = ~(uint32_t) 0x0;
	while ((inb(0x61) & 0x20) == 0) {
		timer2 = lapic_read(LAPIC_TCCR);
		delta = timer - timer2;
  10241b:	29 c6                	sub    %eax,%esi
  10241d:	39 f7                	cmp    %esi,%edi
  10241f:	0f 47 fe             	cmova  %esi,%edi
  102422:	39 f5                	cmp    %esi,%ebp
  102424:	0f 42 ee             	cmovb  %esi,%ebp
		timer = timer2;
		if (delta < timermin)
			timermin = delta;
		if (delta > timermax)
			timermax = delta;
		pitcnt++;
  102427:	83 c3 01             	add    $0x1,%ebx
	timermax = 0;
	timermin = ~(uint32_t) 0x0;
	while ((inb(0x61) & 0x20) == 0) {
		timer2 = lapic_read(LAPIC_TCCR);
		delta = timer - timer2;
		timer = timer2;
  10242a:	89 c6                	mov    %eax,%esi
	timer = timer1 = timer2 = lapic_read(LAPIC_TCCR);

	pitcnt = 0;
	timermax = 0;
	timermin = ~(uint32_t) 0x0;
	while ((inb(0x61) & 0x20) == 0) {
  10242c:	c7 04 24 61 00 00 00 	movl   $0x61,(%esp)
  102433:	e8 f8 2b 00 00       	call   105030 <inb>
  102438:	a8 20                	test   $0x20,%al
  10243a:	74 d4                	je     102410 <lapic_init+0xd0>
	 * times, then we have been hit by a massive SMI
	 *
	 * If the maximum is 10 times larger than the minimum,
	 * then we got hit by an SMI as well.
	 */
	if (pitcnt < loopmin || timermax > 10 * timermin)
  10243c:	81 fb e7 03 00 00    	cmp    $0x3e7,%ebx
  102442:	7f 3c                	jg     102480 <lapic_init+0x140>
	for (i = 0; i < 5; i++) {
		lapic_ticks_per_ms =
			lapic_calibrate_timer(CAL_LATCH, CAL_MS, CAL_PIT_LOOPS);
		if (lapic_ticks_per_ms != ~(uint32_t) 0x0)
			break;
		KERN_DEBUG("[%d] Retry to calibrate internal timer of LAPIC.\n", i);
  102444:	8b 44 24 18          	mov    0x18(%esp),%eax
  102448:	c7 44 24 08 94 b1 10 	movl   $0x10b194,0x8(%esp)
  10244f:	00 
  102450:	c7 44 24 04 80 00 00 	movl   $0x80,0x4(%esp)
  102457:	00 
  102458:	c7 04 24 ea b0 10 00 	movl   $0x10b0ea,(%esp)
  10245f:	89 44 24 0c          	mov    %eax,0xc(%esp)
  102463:	e8 c8 1c 00 00       	call   104130 <debug_normal>
	 * Calibrate the internal timer of LAPIC using TSC.
	 * XXX: TSC should be already calibrated before here.
	 */
	uint32_t lapic_ticks_per_ms;
	int i;
	for (i = 0; i < 5; i++) {
  102468:	83 44 24 18 01       	addl   $0x1,0x18(%esp)
  10246d:	83 7c 24 18 05       	cmpl   $0x5,0x18(%esp)
  102472:	74 6c                	je     1024e0 <lapic_init+0x1a0>
  102474:	a1 08 b8 9c 00       	mov    0x9cb808,%eax
  102479:	e9 05 ff ff ff       	jmp    102383 <lapic_init+0x43>
  10247e:	66 90                	xchg   %ax,%ax
	 * times, then we have been hit by a massive SMI
	 *
	 * If the maximum is 10 times larger than the minimum,
	 * then we got hit by an SMI as well.
	 */
	if (pitcnt < loopmin || timermax > 10 * timermin)
  102480:	8d 04 bf             	lea    (%edi,%edi,4),%eax
  102483:	01 c0                	add    %eax,%eax
  102485:	39 e8                	cmp    %ebp,%eax
  102487:	72 bb                	jb     102444 <lapic_init+0x104>
		return ~(uint32_t) 0x0;

	/* Calculate the PIT value */
	delta = timer1 - timer2;
  102489:	8b 6c 24 1c          	mov    0x1c(%esp),%ebp
	/* do_div(delta, ms); */
	return delta/ms;
  10248d:	ba cd cc cc cc       	mov    $0xcccccccd,%edx
	if (lapic_ticks_per_ms == ~(uint32_t) 0x0) {
		KERN_WARN("Failed to calibrate internal timer of LAPIC.\n");
		KERN_DEBUG("Assume LAPIC timer freq = 0.5 GHz.\n");
		lapic_ticks_per_ms = 500000;
	} else
		KERN_DEBUG("LAPIC timer freq = %llu Hz.\n",
  102492:	c7 44 24 08 fb b0 10 	movl   $0x10b0fb,0x8(%esp)
  102499:	00 
  10249a:	c7 44 24 04 88 00 00 	movl   $0x88,0x4(%esp)
  1024a1:	00 
  1024a2:	c7 04 24 ea b0 10 00 	movl   $0x10b0ea,(%esp)
	 */
	if (pitcnt < loopmin || timermax > 10 * timermin)
		return ~(uint32_t) 0x0;

	/* Calculate the PIT value */
	delta = timer1 - timer2;
  1024a9:	29 f5                	sub    %esi,%ebp
	/* do_div(delta, ms); */
	return delta/ms;
  1024ab:	89 e8                	mov    %ebp,%eax
  1024ad:	f7 e2                	mul    %edx
	if (lapic_ticks_per_ms == ~(uint32_t) 0x0) {
		KERN_WARN("Failed to calibrate internal timer of LAPIC.\n");
		KERN_DEBUG("Assume LAPIC timer freq = 0.5 GHz.\n");
		lapic_ticks_per_ms = 500000;
	} else
		KERN_DEBUG("LAPIC timer freq = %llu Hz.\n",
  1024af:	b8 e8 03 00 00       	mov    $0x3e8,%eax
		return ~(uint32_t) 0x0;

	/* Calculate the PIT value */
	delta = timer1 - timer2;
	/* do_div(delta, ms); */
	return delta/ms;
  1024b4:	89 d3                	mov    %edx,%ebx
  1024b6:	c1 eb 03             	shr    $0x3,%ebx
	if (lapic_ticks_per_ms == ~(uint32_t) 0x0) {
		KERN_WARN("Failed to calibrate internal timer of LAPIC.\n");
		KERN_DEBUG("Assume LAPIC timer freq = 0.5 GHz.\n");
		lapic_ticks_per_ms = 500000;
	} else
		KERN_DEBUG("LAPIC timer freq = %llu Hz.\n",
  1024b9:	f7 e3                	mul    %ebx
  1024bb:	69 db e8 03 00 00    	imul   $0x3e8,%ebx,%ebx
  1024c1:	89 44 24 0c          	mov    %eax,0xc(%esp)
  1024c5:	89 54 24 10          	mov    %edx,0x10(%esp)
  1024c9:	e8 62 1c 00 00       	call   104130 <debug_normal>
  1024ce:	89 d8                	mov    %ebx,%eax
  1024d0:	ba d3 4d 62 10       	mov    $0x10624dd3,%edx
  1024d5:	f7 e2                	mul    %edx
  1024d7:	89 d3                	mov    %edx,%ebx
  1024d9:	c1 eb 06             	shr    $0x6,%ebx
  1024dc:	eb 3f                	jmp    10251d <lapic_init+0x1dd>
  1024de:	66 90                	xchg   %ax,%ax
		if (lapic_ticks_per_ms != ~(uint32_t) 0x0)
			break;
		KERN_DEBUG("[%d] Retry to calibrate internal timer of LAPIC.\n", i);
	}
	if (lapic_ticks_per_ms == ~(uint32_t) 0x0) {
		KERN_WARN("Failed to calibrate internal timer of LAPIC.\n");
  1024e0:	c7 44 24 08 40 b1 10 	movl   $0x10b140,0x8(%esp)
  1024e7:	00 
  1024e8:	bb 20 a1 07 00       	mov    $0x7a120,%ebx
  1024ed:	c7 44 24 04 83 00 00 	movl   $0x83,0x4(%esp)
  1024f4:	00 
  1024f5:	c7 04 24 ea b0 10 00 	movl   $0x10b0ea,(%esp)
  1024fc:	e8 4f 1d 00 00       	call   104250 <debug_warn>
		KERN_DEBUG("Assume LAPIC timer freq = 0.5 GHz.\n");
  102501:	c7 44 24 08 70 b1 10 	movl   $0x10b170,0x8(%esp)
  102508:	00 
  102509:	c7 44 24 04 84 00 00 	movl   $0x84,0x4(%esp)
  102510:	00 
  102511:	c7 04 24 ea b0 10 00 	movl   $0x10b0ea,(%esp)
  102518:	e8 13 1c 00 00       	call   104130 <debug_normal>
		lapic_ticks_per_ms = 500000;
	} else
		KERN_DEBUG("LAPIC timer freq = %llu Hz.\n",
			   (uint64_t) lapic_ticks_per_ms * 1000);
	uint32_t ticr = lapic_ticks_per_ms * 1000 / LAPIC_TIMER_INTR_FREQ;
	KERN_DEBUG("Set LAPIC TICR = %x.\n", ticr);
  10251d:	89 5c 24 0c          	mov    %ebx,0xc(%esp)
  102521:	c7 44 24 08 18 b1 10 	movl   $0x10b118,0x8(%esp)
  102528:	00 
  102529:	c7 44 24 04 8a 00 00 	movl   $0x8a,0x4(%esp)
  102530:	00 
  102531:	c7 04 24 ea b0 10 00 	movl   $0x10b0ea,(%esp)
  102538:	e8 f3 1b 00 00       	call   104130 <debug_normal>

/* Write value to the index'th local APIC register. */
static void
lapic_write(int index, int value)
{
	lapic[index] = value;
  10253d:	a1 08 b8 9c 00       	mov    0x9cb808,%eax
  102542:	89 98 80 03 00 00    	mov    %ebx,0x380(%eax)
	/* wait for the finish of writing */
	lapic[LAPIC_ID];
  102548:	8b 50 20             	mov    0x20(%eax),%edx

/* Write value to the index'th local APIC register. */
static void
lapic_write(int index, int value)
{
	lapic[index] = value;
  10254b:	c7 80 50 03 00 00 00 	movl   $0x10000,0x350(%eax)
  102552:	00 01 00 
	/* wait for the finish of writing */
	lapic[LAPIC_ID];
  102555:	8b 50 20             	mov    0x20(%eax),%edx

/* Write value to the index'th local APIC register. */
static void
lapic_write(int index, int value)
{
	lapic[index] = value;
  102558:	c7 80 60 03 00 00 00 	movl   $0x10000,0x360(%eax)
  10255f:	00 01 00 
	/* wait for the finish of writing */
	lapic[LAPIC_ID];
  102562:	8b 50 20             	mov    0x20(%eax),%edx
 * Read the index'th local APIC register.
 */
static uint32_t
lapic_read(int index)
{
	return lapic[index];
  102565:	8b 50 30             	mov    0x30(%eax),%edx
	lapic_write(LAPIC_LINT0, LAPIC_LINT_MASKED);
	lapic_write(LAPIC_LINT1, LAPIC_LINT_MASKED);

	// Disable performance counter overflow interrupts
	// on machines that provide that interrupt entry.
	if (((lapic_read(LAPIC_VER)>>16) & 0xFF) >= 4)
  102568:	c1 ea 10             	shr    $0x10,%edx
  10256b:	80 fa 03             	cmp    $0x3,%dl
  10256e:	76 0d                	jbe    10257d <lapic_init+0x23d>

/* Write value to the index'th local APIC register. */
static void
lapic_write(int index, int value)
{
	lapic[index] = value;
  102570:	c7 80 40 03 00 00 00 	movl   $0x10000,0x340(%eax)
  102577:	00 01 00 
	/* wait for the finish of writing */
	lapic[LAPIC_ID];
  10257a:	8b 50 20             	mov    0x20(%eax),%edx

/* Write value to the index'th local APIC register. */
static void
lapic_write(int index, int value)
{
	lapic[index] = value;
  10257d:	c7 80 e0 00 00 00 00 	movl   $0xf0000000,0xe0(%eax)
  102584:	00 00 f0 
	/* wait for the finish of writing */
	lapic[LAPIC_ID];
  102587:	8b 50 20             	mov    0x20(%eax),%edx

/* Write value to the index'th local APIC register. */
static void
lapic_write(int index, int value)
{
	lapic[index] = value;
  10258a:	c7 80 d0 00 00 00 00 	movl   $0x0,0xd0(%eax)
  102591:	00 00 00 
	/* wait for the finish of writing */
	lapic[LAPIC_ID];
  102594:	8b 50 20             	mov    0x20(%eax),%edx

/* Write value to the index'th local APIC register. */
static void
lapic_write(int index, int value)
{
	lapic[index] = value;
  102597:	c7 80 70 03 00 00 32 	movl   $0x32,0x370(%eax)
  10259e:	00 00 00 
	/* wait for the finish of writing */
	lapic[LAPIC_ID];
  1025a1:	8b 50 20             	mov    0x20(%eax),%edx

/* Write value to the index'th local APIC register. */
static void
lapic_write(int index, int value)
{
	lapic[index] = value;
  1025a4:	c7 80 80 02 00 00 00 	movl   $0x0,0x280(%eax)
  1025ab:	00 00 00 
	/* wait for the finish of writing */
	lapic[LAPIC_ID];
  1025ae:	8b 50 20             	mov    0x20(%eax),%edx

/* Write value to the index'th local APIC register. */
static void
lapic_write(int index, int value)
{
	lapic[index] = value;
  1025b1:	c7 80 80 02 00 00 00 	movl   $0x0,0x280(%eax)
  1025b8:	00 00 00 
	/* wait for the finish of writing */
	lapic[LAPIC_ID];
  1025bb:	8b 50 20             	mov    0x20(%eax),%edx

/* Write value to the index'th local APIC register. */
static void
lapic_write(int index, int value)
{
	lapic[index] = value;
  1025be:	c7 80 b0 00 00 00 00 	movl   $0x0,0xb0(%eax)
  1025c5:	00 00 00 
	/* wait for the finish of writing */
	lapic[LAPIC_ID];
  1025c8:	8b 50 20             	mov    0x20(%eax),%edx

/* Write value to the index'th local APIC register. */
static void
lapic_write(int index, int value)
{
	lapic[index] = value;
  1025cb:	c7 80 10 03 00 00 00 	movl   $0x0,0x310(%eax)
  1025d2:	00 00 00 
	/* wait for the finish of writing */
	lapic[LAPIC_ID];
  1025d5:	8b 50 20             	mov    0x20(%eax),%edx

/* Write value to the index'th local APIC register. */
static void
lapic_write(int index, int value)
{
	lapic[index] = value;
  1025d8:	c7 80 00 03 00 00 00 	movl   $0x88500,0x300(%eax)
  1025df:	85 08 00 
	/* wait for the finish of writing */
	lapic[LAPIC_ID];
  1025e2:	8b 50 20             	mov    0x20(%eax),%edx
  1025e5:	8d 76 00             	lea    0x0(%esi),%esi
 * Read the index'th local APIC register.
 */
static uint32_t
lapic_read(int index)
{
	return lapic[index];
  1025e8:	8b 90 00 03 00 00    	mov    0x300(%eax),%edx

	// Send an Init Level De-Assert to synchronise arbitration ID's.
	lapic_write(LAPIC_ICRHI, 0);
	lapic_write(LAPIC_ICRLO,
		    LAPIC_ICRLO_BCAST | LAPIC_ICRLO_INIT | LAPIC_ICRLO_LEVEL);
	while(lapic_read(LAPIC_ICRLO) & LAPIC_ICRLO_DELIVS)
  1025ee:	80 e6 10             	and    $0x10,%dh
  1025f1:	75 f5                	jne    1025e8 <lapic_init+0x2a8>

/* Write value to the index'th local APIC register. */
static void
lapic_write(int index, int value)
{
	lapic[index] = value;
  1025f3:	c7 80 80 00 00 00 00 	movl   $0x0,0x80(%eax)
  1025fa:	00 00 00 
	/* wait for the finish of writing */
	lapic[LAPIC_ID];
  1025fd:	8b 40 20             	mov    0x20(%eax),%eax
	while(lapic_read(LAPIC_ICRLO) & LAPIC_ICRLO_DELIVS)
		;

	// Enable interrupts on the APIC (but not on the processor).
	lapic_write(LAPIC_TPR, 0);
}
  102600:	83 c4 2c             	add    $0x2c,%esp
  102603:	5b                   	pop    %ebx
  102604:	5e                   	pop    %esi
  102605:	5f                   	pop    %edi
  102606:	5d                   	pop    %ebp
  102607:	c3                   	ret    
 */
void
lapic_init()
{
	if (!lapic)
		KERN_PANIC("NO LAPIC");
  102608:	c7 44 24 08 e1 b0 10 	movl   $0x10b0e1,0x8(%esp)
  10260f:	00 
  102610:	c7 44 24 04 6a 00 00 	movl   $0x6a,0x4(%esp)
  102617:	00 
  102618:	c7 04 24 ea b0 10 00 	movl   $0x10b0ea,(%esp)
  10261f:	e8 5c 1b 00 00       	call   104180 <debug_panic>
  102624:	a1 08 b8 9c 00       	mov    0x9cb808,%eax
  102629:	e9 26 fd ff ff       	jmp    102354 <lapic_init+0x14>
  10262e:	66 90                	xchg   %ax,%ax

00102630 <lapic_eoi>:
 * Ackownledge the end of interrupts.
 */
void
lapic_eoi(void)
{
	if (lapic)
  102630:	a1 08 b8 9c 00       	mov    0x9cb808,%eax
  102635:	85 c0                	test   %eax,%eax
  102637:	74 0d                	je     102646 <lapic_eoi+0x16>

/* Write value to the index'th local APIC register. */
static void
lapic_write(int index, int value)
{
	lapic[index] = value;
  102639:	c7 80 b0 00 00 00 00 	movl   $0x0,0xb0(%eax)
  102640:	00 00 00 
	/* wait for the finish of writing */
	lapic[LAPIC_ID];
  102643:	8b 40 20             	mov    0x20(%eax),%eax
  102646:	f3 c3                	repz ret 
  102648:	90                   	nop
  102649:	8d b4 26 00 00 00 00 	lea    0x0(%esi,%eiz,1),%esi

00102650 <lapic_startcpu>:
 * Start additional processor running bootstrap code at addr.
 * See Appendix B of MultiProcessor Specification.
 */
void
lapic_startcpu(lapicid_t apicid, uintptr_t addr)
{
  102650:	56                   	push   %esi
  102651:	53                   	push   %ebx
  102652:	83 ec 14             	sub    $0x14,%esp
  102655:	8b 5c 24 24          	mov    0x24(%esp),%ebx
	uint16_t *wrv;

	// "The BSP must initialize CMOS shutdown code to 0AH
	// and the warm reset vector (DWORD based at 40:67) to point at
	// the AP startup code prior to the [universal startup algorithm]."
	outb(IO_RTC, 0xF);  // offset 0xF is shutdown code
  102659:	c7 44 24 04 0f 00 00 	movl   $0xf,0x4(%esp)
  102660:	00 
 * Start additional processor running bootstrap code at addr.
 * See Appendix B of MultiProcessor Specification.
 */
void
lapic_startcpu(lapicid_t apicid, uintptr_t addr)
{
  102661:	8b 74 24 20          	mov    0x20(%esp),%esi
	uint16_t *wrv;

	// "The BSP must initialize CMOS shutdown code to 0AH
	// and the warm reset vector (DWORD based at 40:67) to point at
	// the AP startup code prior to the [universal startup algorithm]."
	outb(IO_RTC, 0xF);  // offset 0xF is shutdown code
  102665:	c7 04 24 70 00 00 00 	movl   $0x70,(%esp)
  10266c:	e8 ef 29 00 00       	call   105060 <outb>
	outb(IO_RTC+1, 0x0A);
  102671:	c7 44 24 04 0a 00 00 	movl   $0xa,0x4(%esp)
  102678:	00 
  102679:	c7 04 24 71 00 00 00 	movl   $0x71,(%esp)
	wrv[0] = 0;
	wrv[1] = addr >> 4;

	// "Universal startup algorithm."
	// Send INIT (level-triggered) interrupt to reset other CPU.
	lapic_write(LAPIC_ICRHI, apicid<<24);
  102680:	c1 e6 18             	shl    $0x18,%esi

	// "The BSP must initialize CMOS shutdown code to 0AH
	// and the warm reset vector (DWORD based at 40:67) to point at
	// the AP startup code prior to the [universal startup algorithm]."
	outb(IO_RTC, 0xF);  // offset 0xF is shutdown code
	outb(IO_RTC+1, 0x0A);
  102683:	e8 d8 29 00 00       	call   105060 <outb>
	wrv = (uint16_t*)(0x40<<4 | 0x67);  // Warm reset vector
	wrv[0] = 0;
  102688:	31 c0                	xor    %eax,%eax
  10268a:	66 a3 67 04 00 00    	mov    %ax,0x467
	wrv[1] = addr >> 4;
  102690:	89 d8                	mov    %ebx,%eax
  102692:	c1 e8 04             	shr    $0x4,%eax
  102695:	66 a3 69 04 00 00    	mov    %ax,0x469

/* Write value to the index'th local APIC register. */
static void
lapic_write(int index, int value)
{
	lapic[index] = value;
  10269b:	a1 08 b8 9c 00       	mov    0x9cb808,%eax
	// when it is in the halted state due to an INIT.  So the second
	// should be ignored, but it is part of the official Intel algorithm.
	// Bochs complains about the second one.  Too bad for Bochs.
	for (i = 0; i < 2; i++) {
		lapic_write(LAPIC_ICRHI, apicid<<24);
		lapic_write(LAPIC_ICRLO, LAPIC_ICRLO_STARTUP | (addr>>12));
  1026a0:	c1 eb 0c             	shr    $0xc,%ebx

/* Write value to the index'th local APIC register. */
static void
lapic_write(int index, int value)
{
	lapic[index] = value;
  1026a3:	89 b0 10 03 00 00    	mov    %esi,0x310(%eax)
	/* wait for the finish of writing */
	lapic[LAPIC_ID];
  1026a9:	8b 50 20             	mov    0x20(%eax),%edx

/* Write value to the index'th local APIC register. */
static void
lapic_write(int index, int value)
{
	lapic[index] = value;
  1026ac:	c7 80 00 03 00 00 00 	movl   $0xc500,0x300(%eax)
  1026b3:	c5 00 00 
	/* wait for the finish of writing */
	lapic[LAPIC_ID];
  1026b6:	8b 50 20             	mov    0x20(%eax),%edx

/* Write value to the index'th local APIC register. */
static void
lapic_write(int index, int value)
{
	lapic[index] = value;
  1026b9:	c7 80 00 03 00 00 00 	movl   $0x8500,0x300(%eax)
  1026c0:	85 00 00 
	/* wait for the finish of writing */
	lapic[LAPIC_ID];
  1026c3:	8b 50 20             	mov    0x20(%eax),%edx

/* Write value to the index'th local APIC register. */
static void
lapic_write(int index, int value)
{
	lapic[index] = value;
  1026c6:	89 b0 10 03 00 00    	mov    %esi,0x310(%eax)
	/* wait for the finish of writing */
	lapic[LAPIC_ID];
  1026cc:	8b 50 20             	mov    0x20(%eax),%edx
	// when it is in the halted state due to an INIT.  So the second
	// should be ignored, but it is part of the official Intel algorithm.
	// Bochs complains about the second one.  Too bad for Bochs.
	for (i = 0; i < 2; i++) {
		lapic_write(LAPIC_ICRHI, apicid<<24);
		lapic_write(LAPIC_ICRLO, LAPIC_ICRLO_STARTUP | (addr>>12));
  1026cf:	89 da                	mov    %ebx,%edx
  1026d1:	80 ce 06             	or     $0x6,%dh

/* Write value to the index'th local APIC register. */
static void
lapic_write(int index, int value)
{
	lapic[index] = value;
  1026d4:	89 90 00 03 00 00    	mov    %edx,0x300(%eax)
	/* wait for the finish of writing */
	lapic[LAPIC_ID];
  1026da:	8b 58 20             	mov    0x20(%eax),%ebx

/* Write value to the index'th local APIC register. */
static void
lapic_write(int index, int value)
{
	lapic[index] = value;
  1026dd:	89 b0 10 03 00 00    	mov    %esi,0x310(%eax)
	/* wait for the finish of writing */
	lapic[LAPIC_ID];
  1026e3:	8b 48 20             	mov    0x20(%eax),%ecx

/* Write value to the index'th local APIC register. */
static void
lapic_write(int index, int value)
{
	lapic[index] = value;
  1026e6:	89 90 00 03 00 00    	mov    %edx,0x300(%eax)
	/* wait for the finish of writing */
	lapic[LAPIC_ID];
  1026ec:	8b 40 20             	mov    0x20(%eax),%eax
	for (i = 0; i < 2; i++) {
		lapic_write(LAPIC_ICRHI, apicid<<24);
		lapic_write(LAPIC_ICRLO, LAPIC_ICRLO_STARTUP | (addr>>12));
		microdelay(200);
	}
}
  1026ef:	83 c4 14             	add    $0x14,%esp
  1026f2:	5b                   	pop    %ebx
  1026f3:	5e                   	pop    %esi
  1026f4:	c3                   	ret    
  1026f5:	8d 74 26 00          	lea    0x0(%esi,%eiz,1),%esi
  1026f9:	8d bc 27 00 00 00 00 	lea    0x0(%edi,%eiz,1),%edi

00102700 <lapic_read_debug>:
 * Read the index'th local APIC register.
 */
static uint32_t
lapic_read(int index)
{
	return lapic[index];
  102700:	a1 08 b8 9c 00       	mov    0x9cb808,%eax
  102705:	8b 54 24 04          	mov    0x4(%esp),%edx
  102709:	8d 04 90             	lea    (%eax,%edx,4),%eax
  10270c:	8b 00                	mov    (%eax),%eax

uint32_t
lapic_read_debug(int index)
{
	return lapic_read(index);
}
  10270e:	c3                   	ret    
  10270f:	90                   	nop

00102710 <lapic_send_ipi>:
 * Send an IPI.
 */
void
lapic_send_ipi(lapicid_t apicid, uint8_t vector,
	       uint32_t deliver_mode, uint32_t shorthand_mode)
{
  102710:	55                   	push   %ebp
  102711:	57                   	push   %edi
  102712:	56                   	push   %esi
  102713:	53                   	push   %ebx
  102714:	83 ec 1c             	sub    $0x1c,%esp
  102717:	8b 5c 24 38          	mov    0x38(%esp),%ebx
  10271b:	8b 6c 24 30          	mov    0x30(%esp),%ebp
  10271f:	8b 7c 24 34          	mov    0x34(%esp),%edi
  102723:	8b 74 24 3c          	mov    0x3c(%esp),%esi
	KERN_ASSERT(deliver_mode != LAPIC_ICRLO_INIT &&
  102727:	81 fb 00 06 00 00    	cmp    $0x600,%ebx
  10272d:	74 51                	je     102780 <lapic_send_ipi+0x70>
  10272f:	81 fb 00 05 00 00    	cmp    $0x500,%ebx
  102735:	74 49                	je     102780 <lapic_send_ipi+0x70>
		    deliver_mode != LAPIC_ICRLO_STARTUP);
	KERN_ASSERT(vector >= T_IPI0);
  102737:	89 f8                	mov    %edi,%eax
  102739:	3c 3e                	cmp    $0x3e,%al
  10273b:	77 08                	ja     102745 <lapic_send_ipi+0x35>
  10273d:	eb 6b                	jmp    1027aa <lapic_send_ipi+0x9a>
  10273f:	90                   	nop

	while (lapic_read(LAPIC_ICRLO) & LAPIC_ICRLO_DELIVS)
		pause();
  102740:	e8 fb 26 00 00       	call   104e40 <pause>
 * Read the index'th local APIC register.
 */
static uint32_t
lapic_read(int index)
{
	return lapic[index];
  102745:	a1 08 b8 9c 00       	mov    0x9cb808,%eax
  10274a:	8b 90 00 03 00 00    	mov    0x300(%eax),%edx
{
	KERN_ASSERT(deliver_mode != LAPIC_ICRLO_INIT &&
		    deliver_mode != LAPIC_ICRLO_STARTUP);
	KERN_ASSERT(vector >= T_IPI0);

	while (lapic_read(LAPIC_ICRLO) & LAPIC_ICRLO_DELIVS)
  102750:	80 e6 10             	and    $0x10,%dh
  102753:	75 eb                	jne    102740 <lapic_send_ipi+0x30>
		pause();

	if (shorthand_mode == LAPIC_ICRLO_NOBCAST)
  102755:	85 f6                	test   %esi,%esi
  102757:	75 0c                	jne    102765 <lapic_send_ipi+0x55>
		lapic_write(LAPIC_ICRHI, (apicid << LAPIC_ICRHI_DEST_SHIFT) &
  102759:	c1 e5 18             	shl    $0x18,%ebp

/* Write value to the index'th local APIC register. */
static void
lapic_write(int index, int value)
{
	lapic[index] = value;
  10275c:	89 a8 10 03 00 00    	mov    %ebp,0x310(%eax)
	/* wait for the finish of writing */
	lapic[LAPIC_ID];
  102762:	8b 50 20             	mov    0x20(%eax),%edx
	if (shorthand_mode == LAPIC_ICRLO_NOBCAST)
		lapic_write(LAPIC_ICRHI, (apicid << LAPIC_ICRHI_DEST_SHIFT) &
			    LAPIC_ICRHI_DEST_MASK);

	lapic_write(LAPIC_ICRLO, shorthand_mode | /* LAPIC_ICRLO_LEVEL | */
		    deliver_mode | (vector & LAPIC_ICRLO_VECTOR));
  102765:	89 f9                	mov    %edi,%ecx
  102767:	0f b6 f9             	movzbl %cl,%edi

	if (shorthand_mode == LAPIC_ICRLO_NOBCAST)
		lapic_write(LAPIC_ICRHI, (apicid << LAPIC_ICRHI_DEST_SHIFT) &
			    LAPIC_ICRHI_DEST_MASK);

	lapic_write(LAPIC_ICRLO, shorthand_mode | /* LAPIC_ICRLO_LEVEL | */
  10276a:	09 f7                	or     %esi,%edi
		    deliver_mode | (vector & LAPIC_ICRLO_VECTOR));
  10276c:	09 df                	or     %ebx,%edi

/* Write value to the index'th local APIC register. */
static void
lapic_write(int index, int value)
{
	lapic[index] = value;
  10276e:	89 b8 00 03 00 00    	mov    %edi,0x300(%eax)
	/* wait for the finish of writing */
	lapic[LAPIC_ID];
  102774:	8b 40 20             	mov    0x20(%eax),%eax

	lapic_write(LAPIC_ICRLO, shorthand_mode | /* LAPIC_ICRLO_LEVEL | */
		    deliver_mode | (vector & LAPIC_ICRLO_VECTOR));

	/* KERN_DEBUG("IPI %d has been sent to processor %d.\n", vector, apicid); */
}
  102777:	83 c4 1c             	add    $0x1c,%esp
  10277a:	5b                   	pop    %ebx
  10277b:	5e                   	pop    %esi
  10277c:	5f                   	pop    %edi
  10277d:	5d                   	pop    %ebp
  10277e:	c3                   	ret    
  10277f:	90                   	nop
 */
void
lapic_send_ipi(lapicid_t apicid, uint8_t vector,
	       uint32_t deliver_mode, uint32_t shorthand_mode)
{
	KERN_ASSERT(deliver_mode != LAPIC_ICRLO_INIT &&
  102780:	c7 44 24 0c c8 b1 10 	movl   $0x10b1c8,0xc(%esp)
  102787:	00 
  102788:	c7 44 24 08 3f ae 10 	movl   $0x10ae3f,0x8(%esp)
  10278f:	00 
  102790:	c7 44 24 04 f3 00 00 	movl   $0xf3,0x4(%esp)
  102797:	00 
  102798:	c7 04 24 ea b0 10 00 	movl   $0x10b0ea,(%esp)
  10279f:	e8 dc 19 00 00       	call   104180 <debug_panic>
		    deliver_mode != LAPIC_ICRLO_STARTUP);
	KERN_ASSERT(vector >= T_IPI0);
  1027a4:	89 f8                	mov    %edi,%eax
  1027a6:	3c 3e                	cmp    $0x3e,%al
  1027a8:	77 9b                	ja     102745 <lapic_send_ipi+0x35>
  1027aa:	c7 44 24 0c 2e b1 10 	movl   $0x10b12e,0xc(%esp)
  1027b1:	00 
  1027b2:	c7 44 24 08 3f ae 10 	movl   $0x10ae3f,0x8(%esp)
  1027b9:	00 
  1027ba:	c7 44 24 04 f4 00 00 	movl   $0xf4,0x4(%esp)
  1027c1:	00 
  1027c2:	c7 04 24 ea b0 10 00 	movl   $0x10b0ea,(%esp)
  1027c9:	e8 b2 19 00 00       	call   104180 <debug_panic>
  1027ce:	e9 72 ff ff ff       	jmp    102745 <lapic_send_ipi+0x35>
  1027d3:	66 90                	xchg   %ax,%ax
  1027d5:	66 90                	xchg   %ax,%ax
  1027d7:	66 90                	xchg   %ax,%ax
  1027d9:	66 90                	xchg   %ax,%ax
  1027db:	66 90                	xchg   %ax,%ax
  1027dd:	66 90                	xchg   %ax,%ax
  1027df:	90                   	nop

001027e0 <ioapic_register>:
	base->data = data;
}

void
ioapic_register(uintptr_t addr, lapicid_t id, int g)
{
  1027e0:	83 ec 1c             	sub    $0x1c,%esp
	if (ioapic_num >= MAX_IOAPIC) {
  1027e3:	a1 64 fe 13 00       	mov    0x13fe64,%eax
	base->data = data;
}

void
ioapic_register(uintptr_t addr, lapicid_t id, int g)
{
  1027e8:	8b 54 24 24          	mov    0x24(%esp),%edx
	if (ioapic_num >= MAX_IOAPIC) {
  1027ec:	83 f8 0f             	cmp    $0xf,%eax
  1027ef:	7f 3f                	jg     102830 <ioapic_register+0x50>
		KERN_WARN("CertiKOS cannot manipulate more than %d IOAPICs.\n",
			  MAX_IOAPIC);
		return;
	}

	ioapics[ioapic_num] = (ioapic_t *) addr;
  1027f1:	a1 64 fe 13 00       	mov    0x13fe64,%eax
  1027f6:	8b 4c 24 20          	mov    0x20(%esp),%ecx
  1027fa:	89 0c 85 80 b8 9c 00 	mov    %ecx,0x9cb880(,%eax,4)
	ioapicid[ioapic_num] = id;
  102801:	a1 64 fe 13 00       	mov    0x13fe64,%eax
  102806:	88 90 20 b8 9c 00    	mov    %dl,0x9cb820(%eax)
	gsi[ioapic_num] = g;
  10280c:	8b 54 24 28          	mov    0x28(%esp),%edx
  102810:	a1 64 fe 13 00       	mov    0x13fe64,%eax
  102815:	89 14 85 40 b8 9c 00 	mov    %edx,0x9cb840(,%eax,4)

	ioapic_num++;
  10281c:	a1 64 fe 13 00       	mov    0x13fe64,%eax
  102821:	83 c0 01             	add    $0x1,%eax
  102824:	a3 64 fe 13 00       	mov    %eax,0x13fe64
}
  102829:	83 c4 1c             	add    $0x1c,%esp
  10282c:	c3                   	ret    
  10282d:	8d 76 00             	lea    0x0(%esi),%esi

void
ioapic_register(uintptr_t addr, lapicid_t id, int g)
{
	if (ioapic_num >= MAX_IOAPIC) {
		KERN_WARN("CertiKOS cannot manipulate more than %d IOAPICs.\n",
  102830:	c7 44 24 0c 10 00 00 	movl   $0x10,0xc(%esp)
  102837:	00 
  102838:	c7 44 24 08 10 b2 10 	movl   $0x10b210,0x8(%esp)
  10283f:	00 
  102840:	c7 44 24 04 26 00 00 	movl   $0x26,0x4(%esp)
  102847:	00 
  102848:	c7 04 24 89 b2 10 00 	movl   $0x10b289,(%esp)
  10284f:	e8 fc 19 00 00       	call   104250 <debug_warn>
	ioapics[ioapic_num] = (ioapic_t *) addr;
	ioapicid[ioapic_num] = id;
	gsi[ioapic_num] = g;

	ioapic_num++;
}
  102854:	83 c4 1c             	add    $0x1c,%esp
  102857:	c3                   	ret    
  102858:	90                   	nop
  102859:	8d b4 26 00 00 00 00 	lea    0x0(%esi,%eiz,1),%esi

00102860 <ioapic_init>:

void
ioapic_init(void)
{
  102860:	57                   	push   %edi
	/* KERN_ASSERT(ioapics != NULL); */

	int i;

	for (i = 0; i < ioapic_num; i++) {
  102861:	31 ff                	xor    %edi,%edi
	ioapic_num++;
}

void
ioapic_init(void)
{
  102863:	56                   	push   %esi
  102864:	53                   	push   %ebx
  102865:	83 ec 20             	sub    $0x20,%esp
	/* KERN_ASSERT(ioapics != NULL); */

	int i;

	for (i = 0; i < ioapic_num; i++) {
  102868:	a1 64 fe 13 00       	mov    0x13fe64,%eax
  10286d:	85 c0                	test   %eax,%eax
  10286f:	0f 8e bf 00 00 00    	jle    102934 <ioapic_init+0xd4>
  102875:	8d 76 00             	lea    0x0(%esi),%esi
		/* debug("Initialize IOAPIC %x\n", ioapicid[i]); */

		volatile ioapic_t *ioapic = ioapics[i];
  102878:	8b 1c bd 80 b8 9c 00 	mov    0x9cb880(,%edi,4),%ebx

		KERN_ASSERT(ioapic != NULL);
  10287f:	85 db                	test   %ebx,%ebx
  102881:	0f 84 b4 00 00 00    	je     10293b <ioapic_init+0xdb>

static uint32_t
ioapic_read(ioapic_t *base, int reg)
{
	/* KERN_DEBUG("ioapic_read: base=%x, reg=%x\n", base, reg); */
	base->reg = reg;
  102887:	c7 03 00 00 00 00    	movl   $0x0,(%ebx)
	return base->data;
  10288d:	8b 43 10             	mov    0x10(%ebx),%eax

		volatile ioapic_t *ioapic = ioapics[i];

		KERN_ASSERT(ioapic != NULL);

		lapicid_t id = ioapic_read(ioapic, IOAPIC_ID) >> 24;
  102890:	c1 e8 18             	shr    $0x18,%eax

		if (id == 0) {
  102893:	84 c0                	test   %al,%al

		volatile ioapic_t *ioapic = ioapics[i];

		KERN_ASSERT(ioapic != NULL);

		lapicid_t id = ioapic_read(ioapic, IOAPIC_ID) >> 24;
  102895:	0f b6 d0             	movzbl %al,%edx

		if (id == 0) {
  102898:	75 1a                	jne    1028b4 <ioapic_init+0x54>
			// I/O APIC ID not initialized yet - have to do it ourselves.
			ioapic_write(ioapic, IOAPIC_ID, ioapicid[i] << 24);
  10289a:	0f b6 87 20 b8 9c 00 	movzbl 0x9cb820(%edi),%eax

static void
ioapic_write(ioapic_t *base, int reg, uint32_t data)
{
	/* KERN_DEBUG("ioapic_write: base=%x, reg=%x, data@%x\n", base, reg, data); */
	base->reg = reg;
  1028a1:	c7 03 00 00 00 00    	movl   $0x0,(%ebx)

		lapicid_t id = ioapic_read(ioapic, IOAPIC_ID) >> 24;

		if (id == 0) {
			// I/O APIC ID not initialized yet - have to do it ourselves.
			ioapic_write(ioapic, IOAPIC_ID, ioapicid[i] << 24);
  1028a7:	c1 e0 18             	shl    $0x18,%eax
static void
ioapic_write(ioapic_t *base, int reg, uint32_t data)
{
	/* KERN_DEBUG("ioapic_write: base=%x, reg=%x, data@%x\n", base, reg, data); */
	base->reg = reg;
	base->data = data;
  1028aa:	89 43 10             	mov    %eax,0x10(%ebx)
		lapicid_t id = ioapic_read(ioapic, IOAPIC_ID) >> 24;

		if (id == 0) {
			// I/O APIC ID not initialized yet - have to do it ourselves.
			ioapic_write(ioapic, IOAPIC_ID, ioapicid[i] << 24);
			id = ioapicid[i];
  1028ad:	0f b6 97 20 b8 9c 00 	movzbl 0x9cb820(%edi),%edx
		}

		if (id != ioapicid[i])
  1028b4:	0f b6 87 20 b8 9c 00 	movzbl 0x9cb820(%edi),%eax
  1028bb:	38 d0                	cmp    %dl,%al
  1028bd:	74 2b                	je     1028ea <ioapic_init+0x8a>
			KERN_WARN("ioapic_init: id %d != ioapicid %d\n",
  1028bf:	0f b6 87 20 b8 9c 00 	movzbl 0x9cb820(%edi),%eax
  1028c6:	89 54 24 0c          	mov    %edx,0xc(%esp)
  1028ca:	c7 44 24 08 44 b2 10 	movl   $0x10b244,0x8(%esp)
  1028d1:	00 
  1028d2:	c7 44 24 04 49 00 00 	movl   $0x49,0x4(%esp)
  1028d9:	00 
  1028da:	89 44 24 10          	mov    %eax,0x10(%esp)
  1028de:	c7 04 24 89 b2 10 00 	movl   $0x10b289,(%esp)
  1028e5:	e8 66 19 00 00       	call   104250 <debug_warn>

static uint32_t
ioapic_read(ioapic_t *base, int reg)
{
	/* KERN_DEBUG("ioapic_read: base=%x, reg=%x\n", base, reg); */
	base->reg = reg;
  1028ea:	c7 03 01 00 00 00    	movl   $0x1,(%ebx)
	return base->data;
  1028f0:	8b 43 10             	mov    0x10(%ebx),%eax

		if (id != ioapicid[i])
			KERN_WARN("ioapic_init: id %d != ioapicid %d\n",
				  id, ioapicid[i]);

		int maxintr = (ioapic_read(ioapic, IOAPIC_VER) >> 16) & 0xFF;
  1028f3:	ba 10 00 00 00       	mov    $0x10,%edx
  1028f8:	c1 e8 10             	shr    $0x10,%eax
  1028fb:	0f b6 f0             	movzbl %al,%esi

		// Mark all interrupts edge-triggered, active high, disabled,
		// and not routed to any CPUs.
		int j;
		for (j = 0; j <= maxintr; j++){
  1028fe:	31 c0                	xor    %eax,%eax
  102900:	8d 48 20             	lea    0x20(%eax),%ecx
  102903:	83 c0 01             	add    $0x1,%eax
			ioapic_write(ioapic, IOAPIC_TABLE + 2 * j,
				     IOAPIC_INT_DISABLED | (T_IRQ0 + j));
  102906:	81 c9 00 00 01 00    	or     $0x10000,%ecx

static void
ioapic_write(ioapic_t *base, int reg, uint32_t data)
{
	/* KERN_DEBUG("ioapic_write: base=%x, reg=%x, data@%x\n", base, reg, data); */
	base->reg = reg;
  10290c:	89 13                	mov    %edx,(%ebx)
	base->data = data;
  10290e:	89 4b 10             	mov    %ecx,0x10(%ebx)
  102911:	8d 4a 01             	lea    0x1(%edx),%ecx
  102914:	83 c2 02             	add    $0x2,%edx
		int maxintr = (ioapic_read(ioapic, IOAPIC_VER) >> 16) & 0xFF;

		// Mark all interrupts edge-triggered, active high, disabled,
		// and not routed to any CPUs.
		int j;
		for (j = 0; j <= maxintr; j++){
  102917:	39 c6                	cmp    %eax,%esi

static void
ioapic_write(ioapic_t *base, int reg, uint32_t data)
{
	/* KERN_DEBUG("ioapic_write: base=%x, reg=%x, data@%x\n", base, reg, data); */
	base->reg = reg;
  102919:	89 0b                	mov    %ecx,(%ebx)
	base->data = data;
  10291b:	c7 43 10 00 00 00 00 	movl   $0x0,0x10(%ebx)
		int maxintr = (ioapic_read(ioapic, IOAPIC_VER) >> 16) & 0xFF;

		// Mark all interrupts edge-triggered, active high, disabled,
		// and not routed to any CPUs.
		int j;
		for (j = 0; j <= maxintr; j++){
  102922:	7d dc                	jge    102900 <ioapic_init+0xa0>
{
	/* KERN_ASSERT(ioapics != NULL); */

	int i;

	for (i = 0; i < ioapic_num; i++) {
  102924:	a1 64 fe 13 00       	mov    0x13fe64,%eax
  102929:	83 c7 01             	add    $0x1,%edi
  10292c:	39 f8                	cmp    %edi,%eax
  10292e:	0f 8f 44 ff ff ff    	jg     102878 <ioapic_init+0x18>
				     IOAPIC_INT_DISABLED | (T_IRQ0 + j));
			ioapic_write(ioapic, IOAPIC_TABLE + 2 * j + 1, 0);
		}

	}
}
  102934:	83 c4 20             	add    $0x20,%esp
  102937:	5b                   	pop    %ebx
  102938:	5e                   	pop    %esi
  102939:	5f                   	pop    %edi
  10293a:	c3                   	ret    
	for (i = 0; i < ioapic_num; i++) {
		/* debug("Initialize IOAPIC %x\n", ioapicid[i]); */

		volatile ioapic_t *ioapic = ioapics[i];

		KERN_ASSERT(ioapic != NULL);
  10293b:	c7 44 24 0c 9b b2 10 	movl   $0x10b29b,0xc(%esp)
  102942:	00 
  102943:	c7 44 24 08 3f ae 10 	movl   $0x10ae3f,0x8(%esp)
  10294a:	00 
  10294b:	c7 44 24 04 3d 00 00 	movl   $0x3d,0x4(%esp)
  102952:	00 
  102953:	c7 04 24 89 b2 10 00 	movl   $0x10b289,(%esp)
  10295a:	e8 21 18 00 00       	call   104180 <debug_panic>
  10295f:	e9 23 ff ff ff       	jmp    102887 <ioapic_init+0x27>
  102964:	8d b6 00 00 00 00    	lea    0x0(%esi),%esi
  10296a:	8d bf 00 00 00 00    	lea    0x0(%edi),%edi

00102970 <ioapic_enable>:

// extern bool pcpu_is_smp(void);

void
ioapic_enable(uint8_t irq, lapicid_t apicid, bool trigger_mode, bool polarity)
{
  102970:	55                   	push   %ebp
  102971:	57                   	push   %edi
  102972:	56                   	push   %esi
  102973:	53                   	push   %ebx
  102974:	83 ec 18             	sub    $0x18,%esp
  102977:	8b 44 24 30          	mov    0x30(%esp),%eax
  10297b:	8b 7c 24 2c          	mov    0x2c(%esp),%edi
  10297f:	8b 6c 24 34          	mov    0x34(%esp),%ebp
  102983:	89 44 24 04          	mov    %eax,0x4(%esp)
  102987:	8b 44 24 38          	mov    0x38(%esp),%eax
  10298b:	89 44 24 08          	mov    %eax,0x8(%esp)
	// Mark interrupt edge-triggered, active high,
	// enabled, and routed to the given APIC ID,

	int i;

	for (i = 0; i < ioapic_num; i++) {
  10298f:	a1 64 fe 13 00       	mov    0x13fe64,%eax
  102994:	85 c0                	test   %eax,%eax
  102996:	0f 8e df 00 00 00    	jle    102a7b <ioapic_enable+0x10b>
  10299c:	89 f8                	mov    %edi,%eax
  10299e:	0f b6 d8             	movzbl %al,%ebx
  1029a1:	31 c0                	xor    %eax,%eax
  1029a3:	90                   	nop
  1029a4:	8d 74 26 00          	lea    0x0(%esi,%eiz,1),%esi
		ioapic_t *ioapic = ioapics[i];
  1029a8:	8b 14 85 80 b8 9c 00 	mov    0x9cb880(,%eax,4),%edx

static uint32_t
ioapic_read(ioapic_t *base, int reg)
{
	/* KERN_DEBUG("ioapic_read: base=%x, reg=%x\n", base, reg); */
	base->reg = reg;
  1029af:	c7 02 01 00 00 00    	movl   $0x1,(%edx)
	return base->data;
  1029b5:	8b 72 10             	mov    0x10(%edx),%esi

	for (i = 0; i < ioapic_num; i++) {
		ioapic_t *ioapic = ioapics[i];
		int maxintr = (ioapic_read(ioapic, IOAPIC_VER) >> 16) & 0xFF;

		if (irq >= gsi[i] && irq <= gsi[i] + maxintr) {
  1029b8:	8b 0c 85 40 b8 9c 00 	mov    0x9cb840(,%eax,4),%ecx
  1029bf:	39 d9                	cmp    %ebx,%ecx
  1029c1:	7f 19                	jg     1029dc <ioapic_enable+0x6c>
  1029c3:	8b 0c 85 40 b8 9c 00 	mov    0x9cb840(,%eax,4),%ecx

	int i;

	for (i = 0; i < ioapic_num; i++) {
		ioapic_t *ioapic = ioapics[i];
		int maxintr = (ioapic_read(ioapic, IOAPIC_VER) >> 16) & 0xFF;
  1029ca:	c1 ee 10             	shr    $0x10,%esi

		if (irq >= gsi[i] && irq <= gsi[i] + maxintr) {
  1029cd:	89 0c 24             	mov    %ecx,(%esp)

	int i;

	for (i = 0; i < ioapic_num; i++) {
		ioapic_t *ioapic = ioapics[i];
		int maxintr = (ioapic_read(ioapic, IOAPIC_VER) >> 16) & 0xFF;
  1029d0:	89 f1                	mov    %esi,%ecx
  1029d2:	0f b6 f1             	movzbl %cl,%esi

		if (irq >= gsi[i] && irq <= gsi[i] + maxintr) {
  1029d5:	03 34 24             	add    (%esp),%esi
  1029d8:	39 de                	cmp    %ebx,%esi
  1029da:	7d 24                	jge    102a00 <ioapic_enable+0x90>
	// Mark interrupt edge-triggered, active high,
	// enabled, and routed to the given APIC ID,

	int i;

	for (i = 0; i < ioapic_num; i++) {
  1029dc:	8b 15 64 fe 13 00    	mov    0x13fe64,%edx
  1029e2:	83 c0 01             	add    $0x1,%eax
  1029e5:	39 c2                	cmp    %eax,%edx
  1029e7:	7f bf                	jg     1029a8 <ioapic_enable+0x38>
				     apicid << 24);
			break;
		}
	}

	if (i == ioapic_num)
  1029e9:	8b 15 64 fe 13 00    	mov    0x13fe64,%edx
  1029ef:	39 d0                	cmp    %edx,%eax
  1029f1:	74 5b                	je     102a4e <ioapic_enable+0xde>
		KERN_PANIC("Cannot enable IRQ %d on IOAPIC.\n", irq);
}
  1029f3:	83 c4 18             	add    $0x18,%esp
  1029f6:	5b                   	pop    %ebx
  1029f7:	5e                   	pop    %esi
  1029f8:	5f                   	pop    %edi
  1029f9:	5d                   	pop    %ebp
  1029fa:	c3                   	ret    
  1029fb:	90                   	nop
  1029fc:	8d 74 26 00          	lea    0x0(%esi,%eiz,1),%esi
		int maxintr = (ioapic_read(ioapic, IOAPIC_VER) >> 16) & 0xFF;

		if (irq >= gsi[i] && irq <= gsi[i] + maxintr) {
			ioapic_write(ioapic,
				     IOAPIC_TABLE + 2 * (irq - gsi[i]),
				     ((trigger_mode << 15) | (polarity << 13) | (T_IRQ0 + irq)));
  102a00:	89 e9                	mov    %ebp,%ecx
		ioapic_t *ioapic = ioapics[i];
		int maxintr = (ioapic_read(ioapic, IOAPIC_VER) >> 16) & 0xFF;

		if (irq >= gsi[i] && irq <= gsi[i] + maxintr) {
			ioapic_write(ioapic,
				     IOAPIC_TABLE + 2 * (irq - gsi[i]),
  102a02:	89 de                	mov    %ebx,%esi
				     ((trigger_mode << 15) | (polarity << 13) | (T_IRQ0 + irq)));
  102a04:	0f b6 e9             	movzbl %cl,%ebp
  102a07:	0f b6 4c 24 08       	movzbl 0x8(%esp),%ecx
  102a0c:	c1 e5 0f             	shl    $0xf,%ebp
  102a0f:	c1 e1 0d             	shl    $0xd,%ecx
  102a12:	09 cd                	or     %ecx,%ebp
  102a14:	8d 4b 20             	lea    0x20(%ebx),%ecx
  102a17:	09 cd                	or     %ecx,%ebp
		ioapic_t *ioapic = ioapics[i];
		int maxintr = (ioapic_read(ioapic, IOAPIC_VER) >> 16) & 0xFF;

		if (irq >= gsi[i] && irq <= gsi[i] + maxintr) {
			ioapic_write(ioapic,
				     IOAPIC_TABLE + 2 * (irq - gsi[i]),
  102a19:	8b 0c 85 40 b8 9c 00 	mov    0x9cb840(,%eax,4),%ecx
  102a20:	29 ce                	sub    %ecx,%esi
	for (i = 0; i < ioapic_num; i++) {
		ioapic_t *ioapic = ioapics[i];
		int maxintr = (ioapic_read(ioapic, IOAPIC_VER) >> 16) & 0xFF;

		if (irq >= gsi[i] && irq <= gsi[i] + maxintr) {
			ioapic_write(ioapic,
  102a22:	8d 4c 36 10          	lea    0x10(%esi,%esi,1),%ecx

static void
ioapic_write(ioapic_t *base, int reg, uint32_t data)
{
	/* KERN_DEBUG("ioapic_write: base=%x, reg=%x, data@%x\n", base, reg, data); */
	base->reg = reg;
  102a26:	89 0a                	mov    %ecx,(%edx)
				     IOAPIC_TABLE + 2 * (irq - gsi[i]),
				     ((trigger_mode << 15) | (polarity << 13) | (T_IRQ0 + irq)));

			ioapic_write(ioapic,
				     IOAPIC_TABLE + 2 * (irq - gsi[i]) + 1,
				     apicid << 24);
  102a28:	8b 4c 24 04          	mov    0x4(%esp),%ecx
static void
ioapic_write(ioapic_t *base, int reg, uint32_t data)
{
	/* KERN_DEBUG("ioapic_write: base=%x, reg=%x, data@%x\n", base, reg, data); */
	base->reg = reg;
	base->data = data;
  102a2c:	89 6a 10             	mov    %ebp,0x10(%edx)
			ioapic_write(ioapic,
				     IOAPIC_TABLE + 2 * (irq - gsi[i]),
				     ((trigger_mode << 15) | (polarity << 13) | (T_IRQ0 + irq)));

			ioapic_write(ioapic,
				     IOAPIC_TABLE + 2 * (irq - gsi[i]) + 1,
  102a2f:	8b 34 85 40 b8 9c 00 	mov    0x9cb840(,%eax,4),%esi
				     apicid << 24);
  102a36:	c1 e1 18             	shl    $0x18,%ecx
			ioapic_write(ioapic,
				     IOAPIC_TABLE + 2 * (irq - gsi[i]),
				     ((trigger_mode << 15) | (polarity << 13) | (T_IRQ0 + irq)));

			ioapic_write(ioapic,
				     IOAPIC_TABLE + 2 * (irq - gsi[i]) + 1,
  102a39:	29 f3                	sub    %esi,%ebx
		if (irq >= gsi[i] && irq <= gsi[i] + maxintr) {
			ioapic_write(ioapic,
				     IOAPIC_TABLE + 2 * (irq - gsi[i]),
				     ((trigger_mode << 15) | (polarity << 13) | (T_IRQ0 + irq)));

			ioapic_write(ioapic,
  102a3b:	8d 5c 1b 11          	lea    0x11(%ebx,%ebx,1),%ebx

static void
ioapic_write(ioapic_t *base, int reg, uint32_t data)
{
	/* KERN_DEBUG("ioapic_write: base=%x, reg=%x, data@%x\n", base, reg, data); */
	base->reg = reg;
  102a3f:	89 1a                	mov    %ebx,(%edx)
	base->data = data;
  102a41:	89 4a 10             	mov    %ecx,0x10(%edx)
				     apicid << 24);
			break;
		}
	}

	if (i == ioapic_num)
  102a44:	8b 15 64 fe 13 00    	mov    0x13fe64,%edx
  102a4a:	39 d0                	cmp    %edx,%eax
  102a4c:	75 a5                	jne    1029f3 <ioapic_enable+0x83>
		KERN_PANIC("Cannot enable IRQ %d on IOAPIC.\n", irq);
  102a4e:	89 f8                	mov    %edi,%eax
  102a50:	0f b6 f8             	movzbl %al,%edi
  102a53:	89 7c 24 38          	mov    %edi,0x38(%esp)
  102a57:	c7 44 24 34 68 b2 10 	movl   $0x10b268,0x34(%esp)
  102a5e:	00 
  102a5f:	c7 44 24 30 75 00 00 	movl   $0x75,0x30(%esp)
  102a66:	00 
  102a67:	c7 44 24 2c 89 b2 10 	movl   $0x10b289,0x2c(%esp)
  102a6e:	00 
}
  102a6f:	83 c4 18             	add    $0x18,%esp
  102a72:	5b                   	pop    %ebx
  102a73:	5e                   	pop    %esi
  102a74:	5f                   	pop    %edi
  102a75:	5d                   	pop    %ebp
			break;
		}
	}

	if (i == ioapic_num)
		KERN_PANIC("Cannot enable IRQ %d on IOAPIC.\n", irq);
  102a76:	e9 05 17 00 00       	jmp    104180 <debug_panic>
	// Mark interrupt edge-triggered, active high,
	// enabled, and routed to the given APIC ID,

	int i;

	for (i = 0; i < ioapic_num; i++) {
  102a7b:	31 c0                	xor    %eax,%eax
  102a7d:	e9 67 ff ff ff       	jmp    1029e9 <ioapic_enable+0x79>
  102a82:	8d b4 26 00 00 00 00 	lea    0x0(%esi,%eiz,1),%esi
  102a89:	8d bc 27 00 00 00 00 	lea    0x0(%edi,%eiz,1),%edi

00102a90 <ioapic_number>:
}

int
ioapic_number(void)
{
	return ioapic_num;
  102a90:	a1 64 fe 13 00       	mov    0x13fe64,%eax
}
  102a95:	c3                   	ret    
  102a96:	8d 76 00             	lea    0x0(%esi),%esi
  102a99:	8d bc 27 00 00 00 00 	lea    0x0(%edi,%eiz,1),%edi

00102aa0 <ioapic_get>:

ioapic_t *
ioapic_get(uint32_t idx)
{
  102aa0:	8b 44 24 04          	mov    0x4(%esp),%eax
	if (idx >= ioapic_num)
  102aa4:	8b 15 64 fe 13 00    	mov    0x13fe64,%edx
  102aaa:	39 c2                	cmp    %eax,%edx
  102aac:	76 0a                	jbe    102ab8 <ioapic_get+0x18>
		return NULL;
	return ioapics[idx];
  102aae:	8b 04 85 80 b8 9c 00 	mov    0x9cb880(,%eax,4),%eax
  102ab5:	c3                   	ret    
  102ab6:	66 90                	xchg   %ax,%ax

ioapic_t *
ioapic_get(uint32_t idx)
{
	if (idx >= ioapic_num)
		return NULL;
  102ab8:	31 c0                	xor    %eax,%eax
	return ioapics[idx];
}
  102aba:	c3                   	ret    
  102abb:	66 90                	xchg   %ax,%ax
  102abd:	66 90                	xchg   %ax,%ax
  102abf:	90                   	nop

00102ac0 <pcpu_mp_init_cpu>:
	pcpu_print_cpuinfo(get_pcpu_idx(), cpuinfo);
}

static void
pcpu_mp_init_cpu(uint32_t idx, uint8_t lapic_id, bool is_bsp)
{
  102ac0:	56                   	push   %esi
  102ac1:	89 d6                	mov    %edx,%esi
  102ac3:	53                   	push   %ebx
  102ac4:	89 cb                	mov    %ecx,%ebx
  102ac6:	83 ec 24             	sub    $0x24,%esp
	KERN_ASSERT((is_bsp == TRUE && idx == 0) || (is_bsp == FALSE));
  102ac9:	80 f9 01             	cmp    $0x1,%cl
  102acc:	75 22                	jne    102af0 <pcpu_mp_init_cpu+0x30>
  102ace:	85 c0                	test   %eax,%eax
  102ad0:	75 1e                	jne    102af0 <pcpu_mp_init_cpu+0x30>

	if (idx >= NUM_CPUS)
	return;

